
build/src/kernel.elf:	file format elf64-littleriscv

Disassembly of section .init:

0000000080000000 <init>:
;     csrw satp, zero
80000000: 18001073     	csrw	satp, zero
;     li t0, 0x1800
80000004: 428d         	li	t0, 0x3
80000006: 02ae         	slli	t0, t0, 0xb
;     csrc mstatus, t0
80000008: 3002b073     	csrc	mstatus, t0
;     li t0, 0x800
8000000c: 4285         	li	t0, 0x1
8000000e: 02ae         	slli	t0, t0, 0xb
;     csrs mstatus, t0
80000010: 3002a073     	csrs	mstatus, t0
;     li t0, -1
80000014: 52fd         	li	t0, -0x1
;     csrw medeleg, t0
80000016: 30229073     	csrw	medeleg, t0
;     csrw mideleg, t0
8000001a: 30329073     	csrw	mideleg, t0
;     li t0, (1 << 63)
8000001e: 52fd         	li	t0, -0x1
80000020: 12fe         	slli	t0, t0, 0x3f
;     csrs menvcfg, t0
80000022: 30a2a073     	csrs	menvcfg, t0
;     li t0, 0x2
80000026: 4289         	li	t0, 0x2
;     csrs mcounteren, t0
80000028: 3062a073     	csrs	mcounteren, t0
;     li t0, 0x3fffffffffffffff
8000002c: 52fd         	li	t0, -0x1
8000002e: 0022d293     	srli	t0, t0, 0x2
;     csrw pmpaddr0, t0
80000032: 3b029073     	csrw	pmpaddr0, t0
;     li t0, 0xf
80000036: 42bd         	li	t0, 0xf
;     csrw pmpcfg0, t0
80000038: 3a029073     	csrw	pmpcfg0, t0
;         lui t0, %hi(kstart)
8000003c: 800062b7     	lui	t0, 0x80006
;         addi t0, t0, %lo(kstart)
80000040: 59428293     	addi	t0, t0, 0x594
;     csrw mepc, t0
80000044: 34129073     	csrw	mepc, t0
;     li t0, 0x10000000
80000048: 100002b7     	lui	t0, 0x10000
;     la t1, _init_msg
8000004c: 00002317     	auipc	t1, 0x2
80000050: fb430313     	addi	t1, t1, -0x4c

0000000080000054 <init_print_msg_loop>:
;         lb t2, 0(t1)
80000054: 00030383     	lb	t2, 0x0(t1)
;         sb t2, 0(t0)
80000058: 00728023     	sb	t2, 0x0(t0)
;         addi t1, t1, 1
8000005c: 0305         	addi	t1, t1, 0x1
;         bnez t2, init_print_msg_loop
8000005e: fe039be3     	bnez	t2, 0x80000054 <init_print_msg_loop>
;     la t0, _init_ptb
80000062: 00001297     	auipc	t0, 0x1
80000066: f9e28293     	addi	t0, t0, -0x62
;     srli t0, t0, 12
8000006a: 00c2d293     	srli	t0, t0, 0xc
;     li t1, 0x8000000000000000
8000006e: 537d         	li	t1, -0x1
80000070: 137e         	slli	t1, t1, 0x3f
;     add t0, t0, t1
80000072: 929a         	add	t0, t0, t1
;     csrw satp, t0
80000074: 18029073     	csrw	satp, t0
;     sfence.vma
80000078: 12000073     	sfence.vma
;     csrr a0, mhartid
8000007c: f1402573     	csrr	a0, mhartid
;     mret
80000080: 30200073     	mret
		...

0000000080001000 <_init_ptb>:
80001000: 0f 00 00 00  	.word	0x0000000f
		...
80001010: 0f 00 00 20  	.word	0x2000000f
		...
80001ff0: 0f 00 00 20  	.word	0x2000000f
		...

0000000080002000 <_init_msg>:
80002000: 69 6e 69 74  	.word	0x74696e69
80002004: 3a 20 72 65  	.word	0x6572203a
80002008: 6c 6f 63 61  	.word	0x61636f6c
8000200c: 74 69 6e 67  	.word	0x676e6974
80002010: 20 74 6f 20  	.word	0x206f7420
80002014: 30 78 66 66  	.word	0x66667830
80002018: 66 66 66 66  	.word	0x66666666
8000201c: 66 66 38 30  	.word	0x30386666
80002020: 30 30 30 30  	.word	0x30303030
80002024: 30 30 20 61  	.word	0x61203030
80002028: 6e 64 20 6a  	.word	0x6a20646e
8000202c: 75 6d 70 69  	.word	0x69706d75
80002030: 6e 67 20 74  	.word	0x7420676e
80002034: 6f 20 53 2d  	.word	0x2d53206f
80002038: 6d 6f 64 65  	.word	0x65646f6d
8000203c: 0a 00        	.short	0x000a

Disassembly of section .text:

ffffffff80003000 <putchar>:
; {
ffffffff80003000: 1101 	addi	sp, sp, -0x20
ffffffff80003002: ec06 	sd	ra, 0x18(sp)
ffffffff80003004: e822 	sd	s0, 0x10(sp)
ffffffff80003006: 1000 	addi	s0, sp, 0x20
ffffffff80003008: fea407a3     	sb	a0, -0x11(s0)
; 	*uart = c;
ffffffff8000300c: fef44503     	lbu	a0, -0x11(s0)
ffffffff80003010: 00050597     	auipc	a1, 0x50
ffffffff80003014: ff058593     	addi	a1, a1, -0x10
ffffffff80003018: 618c 	ld	a1, 0x0(a1)
ffffffff8000301a: 00a58023     	sb	a0, 0x0(a1)
; 	return;
ffffffff8000301e: 60e2 	ld	ra, 0x18(sp)
ffffffff80003020: 6442 	ld	s0, 0x10(sp)
ffffffff80003022: 6105 	addi	sp, sp, 0x20
ffffffff80003024: 8082 	ret

ffffffff80003026 <print>:
; {
ffffffff80003026: 1101 	addi	sp, sp, -0x20
ffffffff80003028: ec06 	sd	ra, 0x18(sp)
ffffffff8000302a: e822 	sd	s0, 0x10(sp)
ffffffff8000302c: 1000 	addi	s0, sp, 0x20
ffffffff8000302e: fea43423     	sd	a0, -0x18(s0)
; 	while (*str != '\0') {
ffffffff80003032: a009 	j	0xffffffff80003034 <print+0xe>
ffffffff80003034: fe843503     	ld	a0, -0x18(s0)
ffffffff80003038: 00054503     	lbu	a0, 0x0(a0)
ffffffff8000303c: cd11 	beqz	a0, 0xffffffff80003058 <print+0x32>
ffffffff8000303e: a009 	j	0xffffffff80003040 <print+0x1a>
; 		putchar(*str);
ffffffff80003040: fe843503     	ld	a0, -0x18(s0)
ffffffff80003044: 00054503     	lbu	a0, 0x0(a0)
ffffffff80003048: fb9ff0ef     	jal	0xffffffff80003000 <putchar>
; 		str++;
ffffffff8000304c: fe843503     	ld	a0, -0x18(s0)
ffffffff80003050: 0505 	addi	a0, a0, 0x1
ffffffff80003052: fea43423     	sd	a0, -0x18(s0)
; 	while (*str != '\0') {
ffffffff80003056: bff9 	j	0xffffffff80003034 <print+0xe>
; 	return;
ffffffff80003058: 60e2 	ld	ra, 0x18(sp)
ffffffff8000305a: 6442 	ld	s0, 0x10(sp)
ffffffff8000305c: 6105 	addi	sp, sp, 0x20
ffffffff8000305e: 8082 	ret

ffffffff80003060 <parse_flag>:
; {
ffffffff80003060: 7179 	addi	sp, sp, -0x30
ffffffff80003062: f406 	sd	ra, 0x28(sp)
ffffffff80003064: f022 	sd	s0, 0x20(sp)
ffffffff80003066: 1800 	addi	s0, sp, 0x30
ffffffff80003068: fea43423     	sd	a0, -0x18(s0)
ffffffff8000306c: feb43023     	sd	a1, -0x20(s0)
; 	switch (*str) {
ffffffff80003070: fe843503     	ld	a0, -0x18(s0)
ffffffff80003074: 00054503     	lbu	a0, 0x0(a0)
ffffffff80003078: fca43c23     	sd	a0, -0x28(s0)
ffffffff8000307c: 02300593     	li	a1, 0x23
ffffffff80003080: 02b50963     	beq	a0, a1, 0xffffffff800030b2 <parse_flag+0x52>
ffffffff80003084: a009 	j	0xffffffff80003086 <parse_flag+0x26>
ffffffff80003086: fd843503     	ld	a0, -0x28(s0)
ffffffff8000308a: 2501 	sext.w	a0, a0
ffffffff8000308c: 03000593     	li	a1, 0x30
; 	switch (*str) {
ffffffff80003090: 02b51f63     	bne	a0, a1, 0xffffffff800030ce <parse_flag+0x6e>
ffffffff80003094: a009 	j	0xffffffff80003096 <parse_flag+0x36>
; 		spec->flags |= FMT_ZERO_PADDING;
ffffffff80003096: fe043583     	ld	a1, -0x20(s0)
ffffffff8000309a: 0005c503     	lbu	a0, 0x0(a1)
ffffffff8000309e: 00256513     	ori	a0, a0, 0x2
ffffffff800030a2: 00a58023     	sb	a0, 0x0(a1)
; 		str += 1;
ffffffff800030a6: fe843503     	ld	a0, -0x18(s0)
ffffffff800030aa: 0505 	addi	a0, a0, 0x1
ffffffff800030ac: fea43423     	sd	a0, -0x18(s0)
; 		break;
ffffffff800030b0: a005 	j	0xffffffff800030d0 <parse_flag+0x70>
; 		spec->flags |= FMT_PREFIX;
ffffffff800030b2: fe043583     	ld	a1, -0x20(s0)
ffffffff800030b6: 0005c503     	lbu	a0, 0x0(a1)
ffffffff800030ba: 00856513     	ori	a0, a0, 0x8
ffffffff800030be: 00a58023     	sb	a0, 0x0(a1)
; 		str += 1;
ffffffff800030c2: fe843503     	ld	a0, -0x18(s0)
ffffffff800030c6: 0505 	addi	a0, a0, 0x1
ffffffff800030c8: fea43423     	sd	a0, -0x18(s0)
; 		break;
ffffffff800030cc: a011 	j	0xffffffff800030d0 <parse_flag+0x70>
; 		break;
ffffffff800030ce: a009 	j	0xffffffff800030d0 <parse_flag+0x70>
; 	return str;
ffffffff800030d0: fe843503     	ld	a0, -0x18(s0)
ffffffff800030d4: 70a2 	ld	ra, 0x28(sp)
ffffffff800030d6: 7402 	ld	s0, 0x20(sp)
ffffffff800030d8: 6145 	addi	sp, sp, 0x30
ffffffff800030da: 8082 	ret

ffffffff800030dc <parse_width>:
; {
ffffffff800030dc: 7179 	addi	sp, sp, -0x30
ffffffff800030de: f406 	sd	ra, 0x28(sp)
ffffffff800030e0: f022 	sd	s0, 0x20(sp)
ffffffff800030e2: 1800 	addi	s0, sp, 0x30
ffffffff800030e4: fea43423     	sd	a0, -0x18(s0)
ffffffff800030e8: feb43023     	sd	a1, -0x20(s0)
ffffffff800030ec: 4501 	li	a0, 0x0
; 	u8 width = 0, digit;
ffffffff800030ee: fca40fa3     	sb	a0, -0x21(s0)
; 	while (is_digit(*str)) {
ffffffff800030f2: a009 	j	0xffffffff800030f4 <parse_width+0x18>
ffffffff800030f4: fe843503     	ld	a0, -0x18(s0)
ffffffff800030f8: 00054503     	lbu	a0, 0x0(a0)
ffffffff800030fc: 05a000ef     	jal	0xffffffff80003156 <is_digit>
ffffffff80003100: cd1d 	beqz	a0, 0xffffffff8000313e <parse_width+0x62>
ffffffff80003102: a009 	j	0xffffffff80003104 <parse_width+0x28>
; 		digit = *str++ - '0';
ffffffff80003104: fe843503     	ld	a0, -0x18(s0)
ffffffff80003108: 00150593     	addi	a1, a0, 0x1
ffffffff8000310c: feb43423     	sd	a1, -0x18(s0)
ffffffff80003110: 00054503     	lbu	a0, 0x0(a0)
ffffffff80003114: fd05051b     	addiw	a0, a0, -0x30
ffffffff80003118: fca40f23     	sb	a0, -0x22(s0)
; 		width *= 10;
ffffffff8000311c: fdf44503     	lbu	a0, -0x21(s0)
ffffffff80003120: 0015159b     	slliw	a1, a0, 0x1
ffffffff80003124: 0035151b     	slliw	a0, a0, 0x3
ffffffff80003128: 9d2d 	addw	a0, a0, a1
ffffffff8000312a: fca40fa3     	sb	a0, -0x21(s0)
; 		width += digit;
ffffffff8000312e: fde44583     	lbu	a1, -0x22(s0)
ffffffff80003132: fdf44503     	lbu	a0, -0x21(s0)
ffffffff80003136: 9d2d 	addw	a0, a0, a1
ffffffff80003138: fca40fa3     	sb	a0, -0x21(s0)
; 	while (is_digit(*str)) {
ffffffff8000313c: bf65 	j	0xffffffff800030f4 <parse_width+0x18>
; 	spec->width = width;
ffffffff8000313e: fdf44503     	lbu	a0, -0x21(s0)
ffffffff80003142: fe043583     	ld	a1, -0x20(s0)
ffffffff80003146: 00a58123     	sb	a0, 0x2(a1)
; 	return str;
ffffffff8000314a: fe843503     	ld	a0, -0x18(s0)
ffffffff8000314e: 70a2 	ld	ra, 0x28(sp)
ffffffff80003150: 7402 	ld	s0, 0x20(sp)
ffffffff80003152: 6145 	addi	sp, sp, 0x30
ffffffff80003154: 8082 	ret

ffffffff80003156 <is_digit>:
; {
ffffffff80003156: 1101 	addi	sp, sp, -0x20
ffffffff80003158: ec06 	sd	ra, 0x18(sp)
ffffffff8000315a: e822 	sd	s0, 0x10(sp)
ffffffff8000315c: 1000 	addi	s0, sp, 0x20
ffffffff8000315e: fea407a3     	sb	a0, -0x11(s0)
; 	return '0' <= c && c <= '9';
ffffffff80003162: fef44503     	lbu	a0, -0x11(s0)
ffffffff80003166: 4601 	li	a2, 0x0
ffffffff80003168: 03000593     	li	a1, 0x30
ffffffff8000316c: fec43023     	sd	a2, -0x20(s0)
ffffffff80003170: 00b54a63     	blt	a0, a1, 0xffffffff80003184 <is_digit+0x2e>
ffffffff80003174: a009 	j	0xffffffff80003176 <is_digit+0x20>
ffffffff80003176: fef44503     	lbu	a0, -0x11(s0)
ffffffff8000317a: 03a52513     	slti	a0, a0, 0x3a
ffffffff8000317e: fea43023     	sd	a0, -0x20(s0)
ffffffff80003182: a009 	j	0xffffffff80003184 <is_digit+0x2e>
ffffffff80003184: fe043503     	ld	a0, -0x20(s0)
; 	return '0' <= c && c <= '9';
ffffffff80003188: 8905 	andi	a0, a0, 0x1
ffffffff8000318a: 60e2 	ld	ra, 0x18(sp)
ffffffff8000318c: 6442 	ld	s0, 0x10(sp)
ffffffff8000318e: 6105 	addi	sp, sp, 0x20
ffffffff80003190: 8082 	ret

ffffffff80003192 <parse_length>:
; {
ffffffff80003192: 7179 	addi	sp, sp, -0x30
ffffffff80003194: f406 	sd	ra, 0x28(sp)
ffffffff80003196: f022 	sd	s0, 0x20(sp)
ffffffff80003198: 1800 	addi	s0, sp, 0x30
ffffffff8000319a: fea43423     	sd	a0, -0x18(s0)
ffffffff8000319e: feb43023     	sd	a1, -0x20(s0)
ffffffff800031a2: 4501 	li	a0, 0x0
; 	u8 length = 0;
ffffffff800031a4: fca40fa3     	sb	a0, -0x21(s0)
; 	if (strncmp(str, "ll", 2) == 0) {
ffffffff800031a8: fe843503     	ld	a0, -0x18(s0)
ffffffff800031ac: 0004f597     	auipc	a1, 0x4f
ffffffff800031b0: 4f658593     	addi	a1, a1, 0x4f6
ffffffff800031b4: 4609 	li	a2, 0x2
ffffffff800031b6: 003010ef     	jal	0xffffffff800049b8 <strncmp>
ffffffff800031ba: e919 	bnez	a0, 0xffffffff800031d0 <parse_length+0x3e>
ffffffff800031bc: a009 	j	0xffffffff800031be <parse_length+0x2c>
; 		str += 2;
ffffffff800031be: fe843503     	ld	a0, -0x18(s0)
ffffffff800031c2: 0509 	addi	a0, a0, 0x2
ffffffff800031c4: fea43423     	sd	a0, -0x18(s0)
ffffffff800031c8: 4521 	li	a0, 0x8
; 		length = sizeof(long long);
ffffffff800031ca: fca40fa3     	sb	a0, -0x21(s0)
; 	} else if (strncmp(str, "hh", 2) == 0) {
ffffffff800031ce: a041 	j	0xffffffff8000324e <parse_length+0xbc>
ffffffff800031d0: fe843503     	ld	a0, -0x18(s0)
ffffffff800031d4: 0004f597     	auipc	a1, 0x4f
ffffffff800031d8: 1aa58593     	addi	a1, a1, 0x1aa
ffffffff800031dc: 4609 	li	a2, 0x2
ffffffff800031de: 7da010ef     	jal	0xffffffff800049b8 <strncmp>
ffffffff800031e2: e919 	bnez	a0, 0xffffffff800031f8 <parse_length+0x66>
ffffffff800031e4: a009 	j	0xffffffff800031e6 <parse_length+0x54>
; 		str += 2;
ffffffff800031e6: fe843503     	ld	a0, -0x18(s0)
ffffffff800031ea: 0509 	addi	a0, a0, 0x2
ffffffff800031ec: fea43423     	sd	a0, -0x18(s0)
ffffffff800031f0: 4505 	li	a0, 0x1
; 		length = sizeof(char);
ffffffff800031f2: fca40fa3     	sb	a0, -0x21(s0)
; 	} else if (strncmp(str, "l", 1) == 0) {
ffffffff800031f6: a899 	j	0xffffffff8000324c <parse_length+0xba>
ffffffff800031f8: fe843503     	ld	a0, -0x18(s0)
ffffffff800031fc: 0004f597     	auipc	a1, 0x4f
ffffffff80003200: 4a958593     	addi	a1, a1, 0x4a9
ffffffff80003204: 4605 	li	a2, 0x1
ffffffff80003206: 7b2010ef     	jal	0xffffffff800049b8 <strncmp>
ffffffff8000320a: e919 	bnez	a0, 0xffffffff80003220 <parse_length+0x8e>
ffffffff8000320c: a009 	j	0xffffffff8000320e <parse_length+0x7c>
; 		str += 1;
ffffffff8000320e: fe843503     	ld	a0, -0x18(s0)
ffffffff80003212: 0505 	addi	a0, a0, 0x1
ffffffff80003214: fea43423     	sd	a0, -0x18(s0)
ffffffff80003218: 4521 	li	a0, 0x8
; 		length = sizeof(long);
ffffffff8000321a: fca40fa3     	sb	a0, -0x21(s0)
; 	} else if (strncmp(str, "h", 1) == 0) {
ffffffff8000321e: a035 	j	0xffffffff8000324a <parse_length+0xb8>
ffffffff80003220: fe843503     	ld	a0, -0x18(s0)
ffffffff80003224: 00050597     	auipc	a1, 0x50
ffffffff80003228: cdc58593     	addi	a1, a1, -0x324
ffffffff8000322c: 4605 	li	a2, 0x1
ffffffff8000322e: 78a010ef     	jal	0xffffffff800049b8 <strncmp>
ffffffff80003232: e919 	bnez	a0, 0xffffffff80003248 <parse_length+0xb6>
ffffffff80003234: a009 	j	0xffffffff80003236 <parse_length+0xa4>
; 		str += 1;
ffffffff80003236: fe843503     	ld	a0, -0x18(s0)
ffffffff8000323a: 0505 	addi	a0, a0, 0x1
ffffffff8000323c: fea43423     	sd	a0, -0x18(s0)
ffffffff80003240: 4509 	li	a0, 0x2
; 		length = sizeof(short);
ffffffff80003242: fca40fa3     	sb	a0, -0x21(s0)
; 	}
ffffffff80003246: a009 	j	0xffffffff80003248 <parse_length+0xb6>
ffffffff80003248: a009 	j	0xffffffff8000324a <parse_length+0xb8>
ffffffff8000324a: a009 	j	0xffffffff8000324c <parse_length+0xba>
ffffffff8000324c: a009 	j	0xffffffff8000324e <parse_length+0xbc>
; 	spec->length = length;
ffffffff8000324e: fdf44503     	lbu	a0, -0x21(s0)
ffffffff80003252: fe043583     	ld	a1, -0x20(s0)
ffffffff80003256: 00a581a3     	sb	a0, 0x3(a1)
; 	return str;
ffffffff8000325a: fe843503     	ld	a0, -0x18(s0)
ffffffff8000325e: 70a2 	ld	ra, 0x28(sp)
ffffffff80003260: 7402 	ld	s0, 0x20(sp)
ffffffff80003262: 6145 	addi	sp, sp, 0x30
ffffffff80003264: 8082 	ret

ffffffff80003266 <parse_type>:
; {
ffffffff80003266: 7139 	addi	sp, sp, -0x40
ffffffff80003268: fc06 	sd	ra, 0x38(sp)
ffffffff8000326a: f822 	sd	s0, 0x30(sp)
ffffffff8000326c: 0080 	addi	s0, sp, 0x40
ffffffff8000326e: fea43423     	sd	a0, -0x18(s0)
ffffffff80003272: feb43023     	sd	a1, -0x20(s0)
ffffffff80003276: fcc43c23     	sd	a2, -0x28(s0)
ffffffff8000327a: 4501 	li	a0, 0x0
; 	u8 flags = 0, base = 0;
ffffffff8000327c: fca409a3     	sb	a0, -0x2d(s0)
ffffffff80003280: fca40923     	sb	a0, -0x2e(s0)
; 	switch (*str) {
ffffffff80003284: fe843503     	ld	a0, -0x18(s0)
ffffffff80003288: 00054503     	lbu	a0, 0x0(a0)
ffffffff8000328c: fa850593     	addi	a1, a0, -0x58
ffffffff80003290: 02059513     	slli	a0, a1, 0x20
ffffffff80003294: 9101 	srli	a0, a0, 0x20
ffffffff80003296: fca43423     	sd	a0, -0x38(s0)
ffffffff8000329a: 02000513     	li	a0, 0x20
ffffffff8000329e: 08b56a63     	bltu	a0, a1, 0xffffffff80003332 <parse_type+0xcc>
ffffffff800032a2: fc843503     	ld	a0, -0x38(s0)
; 	switch (*str) {
ffffffff800032a6: 00351593     	slli	a1, a0, 0x3
ffffffff800032aa: 0004f517     	auipc	a0, 0x4f
ffffffff800032ae: d5650513     	addi	a0, a0, -0x2aa
ffffffff800032b2: 952e 	add	a0, a0, a1
ffffffff800032b4: 6108 	ld	a0, 0x0(a0)
ffffffff800032b6: 8502 	jr	a0
ffffffff800032b8: 4515 	li	a0, 0x5
; 		state = FMT_STATE_CHAR;
ffffffff800032ba: fca42a23     	sw	a0, -0x2c(s0)
; 		break;
ffffffff800032be: a8b5 	j	0xffffffff8000333a <parse_type+0xd4>
; 		flags |= FMT_SIGNED;
ffffffff800032c0: fd344503     	lbu	a0, -0x2d(s0)
ffffffff800032c4: 00156513     	ori	a0, a0, 0x1
ffffffff800032c8: fca409a3     	sb	a0, -0x2d(s0)
ffffffff800032cc: 4529 	li	a0, 0xa
; 		base = 10;
ffffffff800032ce: fca40923     	sb	a0, -0x2e(s0)
ffffffff800032d2: 4519 	li	a0, 0x6
; 		state = FMT_STATE_NUMBER;
ffffffff800032d4: fca42a23     	sw	a0, -0x2c(s0)
; 		break;
ffffffff800032d8: a08d 	j	0xffffffff8000333a <parse_type+0xd4>
ffffffff800032da: 4529 	li	a0, 0xa
; 		base = 10;
ffffffff800032dc: fca40923     	sb	a0, -0x2e(s0)
ffffffff800032e0: 4519 	li	a0, 0x6
; 		state = FMT_STATE_NUMBER;
ffffffff800032e2: fca42a23     	sw	a0, -0x2c(s0)
; 		break;
ffffffff800032e6: a891 	j	0xffffffff8000333a <parse_type+0xd4>
ffffffff800032e8: 4541 	li	a0, 0x10
; 		base = 16;
ffffffff800032ea: fca40923     	sb	a0, -0x2e(s0)
ffffffff800032ee: 4519 	li	a0, 0x6
; 		state = FMT_STATE_NUMBER;
ffffffff800032f0: fca42a23     	sw	a0, -0x2c(s0)
; 		break;
ffffffff800032f4: a099 	j	0xffffffff8000333a <parse_type+0xd4>
; 		flags |= FMT_UPPERCASE;
ffffffff800032f6: fd344503     	lbu	a0, -0x2d(s0)
ffffffff800032fa: 00456513     	ori	a0, a0, 0x4
ffffffff800032fe: fca409a3     	sb	a0, -0x2d(s0)
ffffffff80003302: 4541 	li	a0, 0x10
; 		base = 16;
ffffffff80003304: fca40923     	sb	a0, -0x2e(s0)
ffffffff80003308: 4519 	li	a0, 0x6
; 		state = FMT_STATE_NUMBER;
ffffffff8000330a: fca42a23     	sw	a0, -0x2c(s0)
; 		break;
ffffffff8000330e: a035 	j	0xffffffff8000333a <parse_type+0xd4>
ffffffff80003310: 451d 	li	a0, 0x7
; 		state = FMT_STATE_STR;
ffffffff80003312: fca42a23     	sw	a0, -0x2c(s0)
; 		break;
ffffffff80003316: a015 	j	0xffffffff8000333a <parse_type+0xd4>
; 		flags |= FMT_PREFIX;
ffffffff80003318: fd344503     	lbu	a0, -0x2d(s0)
ffffffff8000331c: 00856513     	ori	a0, a0, 0x8
ffffffff80003320: fca409a3     	sb	a0, -0x2d(s0)
ffffffff80003324: 4541 	li	a0, 0x10
; 		base = 16;
ffffffff80003326: fca40923     	sb	a0, -0x2e(s0)
ffffffff8000332a: 4521 	li	a0, 0x8
; 		state = FMT_STATE_PTR;
ffffffff8000332c: fca42a23     	sw	a0, -0x2c(s0)
; 		break;
ffffffff80003330: a029 	j	0xffffffff8000333a <parse_type+0xd4>
ffffffff80003332: 4525 	li	a0, 0x9
; 		state = FMT_STATE_INVALID;
ffffffff80003334: fca42a23     	sw	a0, -0x2c(s0)
; 	}
ffffffff80003338: a009 	j	0xffffffff8000333a <parse_type+0xd4>
; 	fmt->state = state;
ffffffff8000333a: fd442503     	lw	a0, -0x2c(s0)
ffffffff8000333e: fe043583     	ld	a1, -0x20(s0)
ffffffff80003342: c588 	sw	a0, 0x8(a1)
; 	if (fmt->state != FMT_STATE_NONE)
ffffffff80003344: fe043503     	ld	a0, -0x20(s0)
ffffffff80003348: 4508 	lw	a0, 0x8(a0)
ffffffff8000334a: c901 	beqz	a0, 0xffffffff8000335a <parse_type+0xf4>
ffffffff8000334c: a009 	j	0xffffffff8000334e <parse_type+0xe8>
; 		str += 1;
ffffffff8000334e: fe843503     	ld	a0, -0x18(s0)
ffffffff80003352: 0505 	addi	a0, a0, 0x1
ffffffff80003354: fea43423     	sd	a0, -0x18(s0)
ffffffff80003358: a009 	j	0xffffffff8000335a <parse_type+0xf4>
; 	spec->flags |= flags;
ffffffff8000335a: fd344603     	lbu	a2, -0x2d(s0)
ffffffff8000335e: fd843583     	ld	a1, -0x28(s0)
ffffffff80003362: 0005c503     	lbu	a0, 0x0(a1)
ffffffff80003366: 8d51 	or	a0, a0, a2
ffffffff80003368: 00a58023     	sb	a0, 0x0(a1)
; 	spec->base = base;
ffffffff8000336c: fd244503     	lbu	a0, -0x2e(s0)
ffffffff80003370: fd843583     	ld	a1, -0x28(s0)
ffffffff80003374: 00a580a3     	sb	a0, 0x1(a1)
; 	return str;
ffffffff80003378: fe843503     	ld	a0, -0x18(s0)
ffffffff8000337c: 70e2 	ld	ra, 0x38(sp)
ffffffff8000337e: 7442 	ld	s0, 0x30(sp)
ffffffff80003380: 6121 	addi	sp, sp, 0x40
ffffffff80003382: 8082 	ret

ffffffff80003384 <parse_specifier>:
; {
ffffffff80003384: 7179 	addi	sp, sp, -0x30
ffffffff80003386: f406 	sd	ra, 0x28(sp)
ffffffff80003388: f022 	sd	s0, 0x20(sp)
ffffffff8000338a: 1800 	addi	s0, sp, 0x30
ffffffff8000338c: fea43423     	sd	a0, -0x18(s0)
ffffffff80003390: feb43023     	sd	a1, -0x20(s0)
; 	const char *str = fmt->str;
ffffffff80003394: fe843503     	ld	a0, -0x18(s0)
ffffffff80003398: 6108 	ld	a0, 0x0(a0)
ffffffff8000339a: fca43c23     	sd	a0, -0x28(s0)
; 	str = parse_flag(str, spec);
ffffffff8000339e: fd843503     	ld	a0, -0x28(s0)
ffffffff800033a2: fe043583     	ld	a1, -0x20(s0)
ffffffff800033a6: cbbff0ef     	jal	0xffffffff80003060 <parse_flag>
ffffffff800033aa: fca43c23     	sd	a0, -0x28(s0)
; 	str = parse_width(str, spec);
ffffffff800033ae: fd843503     	ld	a0, -0x28(s0)
ffffffff800033b2: fe043583     	ld	a1, -0x20(s0)
ffffffff800033b6: d27ff0ef     	jal	0xffffffff800030dc <parse_width>
ffffffff800033ba: fca43c23     	sd	a0, -0x28(s0)
; 	str = parse_length(str, spec);
ffffffff800033be: fd843503     	ld	a0, -0x28(s0)
ffffffff800033c2: fe043583     	ld	a1, -0x20(s0)
ffffffff800033c6: dcdff0ef     	jal	0xffffffff80003192 <parse_length>
ffffffff800033ca: fca43c23     	sd	a0, -0x28(s0)
; 	str = parse_type(str, fmt, spec);
ffffffff800033ce: fd843503     	ld	a0, -0x28(s0)
ffffffff800033d2: fe843583     	ld	a1, -0x18(s0)
ffffffff800033d6: fe043603     	ld	a2, -0x20(s0)
ffffffff800033da: e8dff0ef     	jal	0xffffffff80003266 <parse_type>
ffffffff800033de: fca43c23     	sd	a0, -0x28(s0)
; 	fmt->str = str;
ffffffff800033e2: fd843503     	ld	a0, -0x28(s0)
ffffffff800033e6: fe843583     	ld	a1, -0x18(s0)
ffffffff800033ea: e188 	sd	a0, 0x0(a1)
; 	return str;
ffffffff800033ec: fd843503     	ld	a0, -0x28(s0)
ffffffff800033f0: 70a2 	ld	ra, 0x28(sp)
ffffffff800033f2: 7402 	ld	s0, 0x20(sp)
ffffffff800033f4: 6145 	addi	sp, sp, 0x30
ffffffff800033f6: 8082 	ret

ffffffff800033f8 <printk_set_level>:
; {
ffffffff800033f8: 1101 	addi	sp, sp, -0x20
ffffffff800033fa: ec06 	sd	ra, 0x18(sp)
ffffffff800033fc: e822 	sd	s0, 0x10(sp)
ffffffff800033fe: 1000 	addi	s0, sp, 0x20
ffffffff80003400: fea42623     	sw	a0, -0x14(s0)
; 	current_level = level;
ffffffff80003404: fec42503     	lw	a0, -0x14(s0)
ffffffff80003408: 00050597     	auipc	a1, 0x50
ffffffff8000340c: c0058593     	addi	a1, a1, -0x400
ffffffff80003410: c188 	sw	a0, 0x0(a1)
; }
ffffffff80003412: 60e2 	ld	ra, 0x18(sp)
ffffffff80003414: 6442 	ld	s0, 0x10(sp)
ffffffff80003416: 6105 	addi	sp, sp, 0x20
ffffffff80003418: 8082 	ret

ffffffff8000341a <printk>:
; {
ffffffff8000341a: 711d 	addi	sp, sp, -0x60
ffffffff8000341c: f406 	sd	ra, 0x28(sp)
ffffffff8000341e: f022 	sd	s0, 0x20(sp)
ffffffff80003420: 1800 	addi	s0, sp, 0x30
ffffffff80003422: 03143423     	sd	a7, 0x28(s0)
ffffffff80003426: 03043023     	sd	a6, 0x20(s0)
ffffffff8000342a: ec1c 	sd	a5, 0x18(s0)
ffffffff8000342c: e818 	sd	a4, 0x10(s0)
ffffffff8000342e: e414 	sd	a3, 0x8(s0)
ffffffff80003430: e010 	sd	a2, 0x0(s0)
ffffffff80003432: fea42623     	sw	a0, -0x14(s0)
ffffffff80003436: feb43023     	sd	a1, -0x20(s0)
; 	if (level > current_level)
ffffffff8000343a: fec42583     	lw	a1, -0x14(s0)
ffffffff8000343e: 00050517     	auipc	a0, 0x50
ffffffff80003442: bca50513     	addi	a0, a0, -0x436
ffffffff80003446: 4108 	lw	a0, 0x0(a0)
ffffffff80003448: 00b55463     	bge	a0, a1, 0xffffffff80003450 <printk+0x36>
ffffffff8000344c: a009 	j	0xffffffff8000344e <printk+0x34>
; 		return;
ffffffff8000344e: a035 	j	0xffffffff8000347a <printk+0x60>
ffffffff80003450: 8522 	mv	a0, s0
; 	va_start(args, fmt_str);
ffffffff80003452: fca43c23     	sd	a0, -0x28(s0)
; 	vsnprintf(g_buf, PRINTK_BUF_SIZE, fmt_str, args);
ffffffff80003456: fe043603     	ld	a2, -0x20(s0)
ffffffff8000345a: fd843683     	ld	a3, -0x28(s0)
ffffffff8000345e: 00004517     	auipc	a0, 0x4
ffffffff80003462: ba250513     	addi	a0, a0, -0x45e
ffffffff80003466: fca43823     	sd	a0, -0x30(s0)
ffffffff8000346a: 6585 	lui	a1, 0x1
ffffffff8000346c: 016000ef     	jal	0xffffffff80003482 <vsnprintf>
ffffffff80003470: fd043503     	ld	a0, -0x30(s0)
; 	print(g_buf);
ffffffff80003474: bb3ff0ef     	jal	0xffffffff80003026 <print>
; }
ffffffff80003478: a009 	j	0xffffffff8000347a <printk+0x60>
ffffffff8000347a: 70a2 	ld	ra, 0x28(sp)
ffffffff8000347c: 7402 	ld	s0, 0x20(sp)
ffffffff8000347e: 6125 	addi	sp, sp, 0x60
ffffffff80003480: 8082 	ret

ffffffff80003482 <vsnprintf>:
; {
ffffffff80003482: 7135 	addi	sp, sp, -0xa0
ffffffff80003484: ed06 	sd	ra, 0x98(sp)
ffffffff80003486: e922 	sd	s0, 0x90(sp)
ffffffff80003488: 1100 	addi	s0, sp, 0xa0
ffffffff8000348a: fea43423     	sd	a0, -0x18(s0)
ffffffff8000348e: feb43023     	sd	a1, -0x20(s0)
ffffffff80003492: fcc43c23     	sd	a2, -0x28(s0)
ffffffff80003496: fcd43823     	sd	a3, -0x30(s0)
; 	struct fmt fmt = { .str = fmt_str, .state = FMT_STATE_NONE };
ffffffff8000349a: fd843503     	ld	a0, -0x28(s0)
ffffffff8000349e: fca43023     	sd	a0, -0x40(s0)
ffffffff800034a2: 4501 	li	a0, 0x0
ffffffff800034a4: fca42423     	sw	a0, -0x38(s0)
ffffffff800034a8: fca42623     	sw	a0, -0x34(s0)
; 	struct fmt_specifier spec = {0};
ffffffff800034ac: faa42e23     	sw	a0, -0x44(s0)
; 	char *bufp = buf, *s;
ffffffff800034b0: fe843503     	ld	a0, -0x18(s0)
ffffffff800034b4: faa43823     	sd	a0, -0x50(s0)
; 	size_t remaining = size;
ffffffff800034b8: fe043503     	ld	a0, -0x20(s0)
ffffffff800034bc: f8a43823     	sd	a0, -0x70(s0)
; 	while (fmt.state != FMT_STATE_END && size > 1) {
ffffffff800034c0: a009 	j	0xffffffff800034c2 <vsnprintf+0x40>
ffffffff800034c2: fc842503     	lw	a0, -0x38(s0)
ffffffff800034c6: 4601 	li	a2, 0x0
ffffffff800034c8: 45a9 	li	a1, 0xa
ffffffff800034ca: f8c43023     	sd	a2, -0x80(s0)
ffffffff800034ce: 00b50c63     	beq	a0, a1, 0xffffffff800034e6 <vsnprintf+0x64>
ffffffff800034d2: a009 	j	0xffffffff800034d4 <vsnprintf+0x52>
ffffffff800034d4: fe043503     	ld	a0, -0x20(s0)
ffffffff800034d8: 00253513     	sltiu	a0, a0, 0x2
ffffffff800034dc: 00154513     	xori	a0, a0, 0x1
ffffffff800034e0: f8a43023     	sd	a0, -0x80(s0)
ffffffff800034e4: a009 	j	0xffffffff800034e6 <vsnprintf+0x64>
ffffffff800034e6: f8043503     	ld	a0, -0x80(s0)
; 	while (fmt.state != FMT_STATE_END && size > 1) {
ffffffff800034ea: 8905 	andi	a0, a0, 0x1
ffffffff800034ec: 1c050a63     	beqz	a0, 0xffffffff800036c0 <vsnprintf+0x23e>
ffffffff800034f0: a009 	j	0xffffffff800034f2 <vsnprintf+0x70>
; 		remaining = size - (size_t) (bufp - buf);
ffffffff800034f2: fe043503     	ld	a0, -0x20(s0)
ffffffff800034f6: fb043603     	ld	a2, -0x50(s0)
ffffffff800034fa: fe843583     	ld	a1, -0x18(s0)
ffffffff800034fe: 8d91 	sub	a1, a1, a2
ffffffff80003500: 952e 	add	a0, a0, a1
ffffffff80003502: f8a43823     	sd	a0, -0x70(s0)
; 		switch (fmt.state) {
ffffffff80003506: fc846583     	lwu	a1, -0x38(s0)
ffffffff8000350a: f6b43c23     	sd	a1, -0x88(s0)
ffffffff8000350e: 4525 	li	a0, 0x9
ffffffff80003510: 1ab56363     	bltu	a0, a1, 0xffffffff800036b6 <vsnprintf+0x234>
ffffffff80003514: f7843503     	ld	a0, -0x88(s0)
; 		switch (fmt.state) {
ffffffff80003518: 00351593     	slli	a1, a0, 0x3
ffffffff8000351c: 0004f517     	auipc	a0, 0x4f
ffffffff80003520: bec50513     	addi	a0, a0, -0x414
ffffffff80003524: 952e 	add	a0, a0, a1
ffffffff80003526: 6108 	ld	a0, 0x0(a0)
ffffffff80003528: 8502 	jr	a0
; 			if (*fmt.str == '\0') {
ffffffff8000352a: fc043503     	ld	a0, -0x40(s0)
ffffffff8000352e: 00054503     	lbu	a0, 0x0(a0)
ffffffff80003532: e511 	bnez	a0, 0xffffffff8000353e <vsnprintf+0xbc>
ffffffff80003534: a009 	j	0xffffffff80003536 <vsnprintf+0xb4>
ffffffff80003536: 4529 	li	a0, 0xa
; 				fmt.state = FMT_STATE_END;
ffffffff80003538: fca42423     	sw	a0, -0x38(s0)
; 				continue;
ffffffff8000353c: b759 	j	0xffffffff800034c2 <vsnprintf+0x40>
; 			} else if (*fmt.str == '%') {
ffffffff8000353e: fc043503     	ld	a0, -0x40(s0)
ffffffff80003542: 00054503     	lbu	a0, 0x0(a0)
ffffffff80003546: 02500593     	li	a1, 0x25
ffffffff8000354a: 02b51963     	bne	a0, a1, 0xffffffff8000357c <vsnprintf+0xfa>
ffffffff8000354e: a009 	j	0xffffffff80003550 <vsnprintf+0xce>
ffffffff80003550: fbc40513     	addi	a0, s0, -0x44
ffffffff80003554: 4581 	li	a1, 0x0
ffffffff80003556: 4611 	li	a2, 0x4
ffffffff80003558: f6c43823     	sd	a2, -0x90(s0)
; 				memset(&spec, 0, sizeof(spec));
ffffffff8000355c: 280010ef     	jal	0xffffffff800047dc <memset>
ffffffff80003560: f7043503     	ld	a0, -0x90(s0)
; 				percent = fmt.str;
ffffffff80003564: fc043583     	ld	a1, -0x40(s0)
ffffffff80003568: fab43023     	sd	a1, -0x60(s0)
; 				fmt.str++;
ffffffff8000356c: fc043583     	ld	a1, -0x40(s0)
ffffffff80003570: 0585 	addi	a1, a1, 0x1
ffffffff80003572: fcb43023     	sd	a1, -0x40(s0)
; 				fmt.state = FMT_STATE_SPECIFIER;
ffffffff80003576: fca42423     	sw	a0, -0x38(s0)
; 				continue;
ffffffff8000357a: b7a1 	j	0xffffffff800034c2 <vsnprintf+0x40>
; 				*bufp++ = *fmt.str++;
ffffffff8000357c: fc043503     	ld	a0, -0x40(s0)
ffffffff80003580: 00150593     	addi	a1, a0, 0x1
ffffffff80003584: fcb43023     	sd	a1, -0x40(s0)
ffffffff80003588: 00054503     	lbu	a0, 0x0(a0)
ffffffff8000358c: fb043583     	ld	a1, -0x50(s0)
ffffffff80003590: 00158613     	addi	a2, a1, 0x1
ffffffff80003594: fac43823     	sd	a2, -0x50(s0)
ffffffff80003598: 00a58023     	sb	a0, 0x0(a1)
; 				continue;
ffffffff8000359c: b71d 	j	0xffffffff800034c2 <vsnprintf+0x40>
ffffffff8000359e: fc040513     	addi	a0, s0, -0x40
ffffffff800035a2: fbc40593     	addi	a1, s0, -0x44
; 			parse_specifier(&fmt, &spec);
ffffffff800035a6: ddfff0ef     	jal	0xffffffff80003384 <parse_specifier>
; 			break;
ffffffff800035aa: aa11 	j	0xffffffff800036be <vsnprintf+0x23c>
; 			num = va_arg(args, u64);
ffffffff800035ac: fd043503     	ld	a0, -0x30(s0)
ffffffff800035b0: 00850593     	addi	a1, a0, 0x8
ffffffff800035b4: fcb43823     	sd	a1, -0x30(s0)
ffffffff800035b8: 6108 	ld	a0, 0x0(a0)
ffffffff800035ba: f8a43423     	sd	a0, -0x78(s0)
; 			num = number_truncate(num, &spec);
ffffffff800035be: f8843503     	ld	a0, -0x78(s0)
ffffffff800035c2: fbc40593     	addi	a1, s0, -0x44
ffffffff800035c6: f6b43423     	sd	a1, -0x98(s0)
ffffffff800035ca: 1a4000ef     	jal	0xffffffff8000376e <number_truncate>
ffffffff800035ce: f6843683     	ld	a3, -0x98(s0)
ffffffff800035d2: f8a43423     	sd	a0, -0x78(s0)
; 			bufp = number(bufp, remaining, num, &spec);
ffffffff800035d6: fb043503     	ld	a0, -0x50(s0)
ffffffff800035da: f9043583     	ld	a1, -0x70(s0)
ffffffff800035de: f8843603     	ld	a2, -0x78(s0)
ffffffff800035e2: 200000ef     	jal	0xffffffff800037e2 <number>
ffffffff800035e6: faa43823     	sd	a0, -0x50(s0)
ffffffff800035ea: 4501 	li	a0, 0x0
; 			fmt.state = FMT_STATE_NONE;
ffffffff800035ec: fca42423     	sw	a0, -0x38(s0)
; 			break;
ffffffff800035f0: a0f9 	j	0xffffffff800036be <vsnprintf+0x23c>
; 			s = va_arg(args, char *);
ffffffff800035f2: fd043503     	ld	a0, -0x30(s0)
ffffffff800035f6: 00850593     	addi	a1, a0, 0x8
ffffffff800035fa: fcb43823     	sd	a1, -0x30(s0)
ffffffff800035fe: 6108 	ld	a0, 0x0(a0)
ffffffff80003600: faa43423     	sd	a0, -0x58(s0)
; 			bufp = string(bufp, remaining, s);
ffffffff80003604: fb043503     	ld	a0, -0x50(s0)
ffffffff80003608: f9043583     	ld	a1, -0x70(s0)
ffffffff8000360c: fa843603     	ld	a2, -0x58(s0)
ffffffff80003610: 45e000ef     	jal	0xffffffff80003a6e <string>
ffffffff80003614: faa43823     	sd	a0, -0x50(s0)
ffffffff80003618: 4501 	li	a0, 0x0
; 			fmt.state = FMT_STATE_NONE;
ffffffff8000361a: fca42423     	sw	a0, -0x38(s0)
; 			break;
ffffffff8000361e: a045 	j	0xffffffff800036be <vsnprintf+0x23c>
; 			c = (u8)va_arg(args, u64);
ffffffff80003620: fd043503     	ld	a0, -0x30(s0)
ffffffff80003624: 00850593     	addi	a1, a0, 0x8
ffffffff80003628: fcb43823     	sd	a1, -0x30(s0)
ffffffff8000362c: 6108 	ld	a0, 0x0(a0)
ffffffff8000362e: f8a40fa3     	sb	a0, -0x61(s0)
; 			bufp = character(bufp, size, c);
ffffffff80003632: fb043503     	ld	a0, -0x50(s0)
ffffffff80003636: fe043583     	ld	a1, -0x20(s0)
ffffffff8000363a: f9f44603     	lbu	a2, -0x61(s0)
ffffffff8000363e: 4a8000ef     	jal	0xffffffff80003ae6 <character>
ffffffff80003642: faa43823     	sd	a0, -0x50(s0)
ffffffff80003646: 4501 	li	a0, 0x0
; 			fmt.state = FMT_STATE_NONE;
ffffffff80003648: fca42423     	sw	a0, -0x38(s0)
; 			break;
ffffffff8000364c: a88d 	j	0xffffffff800036be <vsnprintf+0x23c>
; 			num = va_arg(args, u64);
ffffffff8000364e: fd043503     	ld	a0, -0x30(s0)
ffffffff80003652: 00850593     	addi	a1, a0, 0x8
ffffffff80003656: fcb43823     	sd	a1, -0x30(s0)
ffffffff8000365a: 6108 	ld	a0, 0x0(a0)
ffffffff8000365c: f8a43423     	sd	a0, -0x78(s0)
; 			bufp = pointer(bufp, size, num, &spec);
ffffffff80003660: fb043503     	ld	a0, -0x50(s0)
ffffffff80003664: fe043583     	ld	a1, -0x20(s0)
ffffffff80003668: f8843603     	ld	a2, -0x78(s0)
ffffffff8000366c: fbc40693     	addi	a3, s0, -0x44
ffffffff80003670: 4ba000ef     	jal	0xffffffff80003b2a <pointer>
ffffffff80003674: faa43823     	sd	a0, -0x50(s0)
ffffffff80003678: 4501 	li	a0, 0x0
; 			fmt.state = FMT_STATE_NONE;
ffffffff8000367a: fca42423     	sw	a0, -0x38(s0)
; 			break;
ffffffff8000367e: a081 	j	0xffffffff800036be <vsnprintf+0x23c>
; 			if (--size > 0)
ffffffff80003680: fe043503     	ld	a0, -0x20(s0)
ffffffff80003684: 157d 	addi	a0, a0, -0x1
ffffffff80003686: fea43023     	sd	a0, -0x20(s0)
ffffffff8000368a: cd09 	beqz	a0, 0xffffffff800036a4 <vsnprintf+0x222>
ffffffff8000368c: a009 	j	0xffffffff8000368e <vsnprintf+0x20c>
; 				*bufp++ = '%';
ffffffff8000368e: fb043583     	ld	a1, -0x50(s0)
ffffffff80003692: 00158513     	addi	a0, a1, 0x1
ffffffff80003696: faa43823     	sd	a0, -0x50(s0)
ffffffff8000369a: 02500513     	li	a0, 0x25
ffffffff8000369e: 00a58023     	sb	a0, 0x0(a1)
ffffffff800036a2: a009 	j	0xffffffff800036a4 <vsnprintf+0x222>
; 			fmt.str = percent + 1;
ffffffff800036a4: fa043503     	ld	a0, -0x60(s0)
ffffffff800036a8: 0505 	addi	a0, a0, 0x1
ffffffff800036aa: fca43023     	sd	a0, -0x40(s0)
ffffffff800036ae: 4501 	li	a0, 0x0
; 			fmt.state = FMT_STATE_NONE;
ffffffff800036b0: fca42423     	sw	a0, -0x38(s0)
; 			break;
ffffffff800036b4: a029 	j	0xffffffff800036be <vsnprintf+0x23c>
ffffffff800036b6: 4501 	li	a0, 0x0
; 			fmt.state = FMT_STATE_NONE;
ffffffff800036b8: fca42423     	sw	a0, -0x38(s0)
; 		}
ffffffff800036bc: a009 	j	0xffffffff800036be <vsnprintf+0x23c>
; 	while (fmt.state != FMT_STATE_END && size > 1) {
ffffffff800036be: b511 	j	0xffffffff800034c2 <vsnprintf+0x40>
; 	*bufp = '\0';
ffffffff800036c0: fb043583     	ld	a1, -0x50(s0)
ffffffff800036c4: 4501 	li	a0, 0x0
ffffffff800036c6: 00a58023     	sb	a0, 0x0(a1)
; }
ffffffff800036ca: 60ea 	ld	ra, 0x98(sp)
ffffffff800036cc: 644a 	ld	s0, 0x90(sp)
ffffffff800036ce: 610d 	addi	sp, sp, 0xa0
ffffffff800036d0: 8082 	ret

ffffffff800036d2 <vprintk>:
; {
ffffffff800036d2: 7179 	addi	sp, sp, -0x30
ffffffff800036d4: f406 	sd	ra, 0x28(sp)
ffffffff800036d6: f022 	sd	s0, 0x20(sp)
ffffffff800036d8: 1800 	addi	s0, sp, 0x30
ffffffff800036da: fea42623     	sw	a0, -0x14(s0)
ffffffff800036de: feb43023     	sd	a1, -0x20(s0)
ffffffff800036e2: fcc43c23     	sd	a2, -0x28(s0)
; 	if (level > current_level)
ffffffff800036e6: fec42583     	lw	a1, -0x14(s0)
ffffffff800036ea: 00050517     	auipc	a0, 0x50
ffffffff800036ee: 91e50513     	addi	a0, a0, -0x6e2
ffffffff800036f2: 4108 	lw	a0, 0x0(a0)
ffffffff800036f4: 00b55463     	bge	a0, a1, 0xffffffff800036fc <vprintk+0x2a>
ffffffff800036f8: a009 	j	0xffffffff800036fa <vprintk+0x28>
; 		return;
ffffffff800036fa: a01d 	j	0xffffffff80003720 <vprintk+0x4e>
; 	vsnprintf(g_buf, PRINTK_BUF_SIZE, fmt_str, args);
ffffffff800036fc: fe043603     	ld	a2, -0x20(s0)
ffffffff80003700: fd843683     	ld	a3, -0x28(s0)
ffffffff80003704: 00004517     	auipc	a0, 0x4
ffffffff80003708: 8fc50513     	addi	a0, a0, -0x704
ffffffff8000370c: fca43823     	sd	a0, -0x30(s0)
ffffffff80003710: 6585 	lui	a1, 0x1
ffffffff80003712: d71ff0ef     	jal	0xffffffff80003482 <vsnprintf>
ffffffff80003716: fd043503     	ld	a0, -0x30(s0)
; 	print(g_buf);
ffffffff8000371a: 90dff0ef     	jal	0xffffffff80003026 <print>
; }
ffffffff8000371e: a009 	j	0xffffffff80003720 <vprintk+0x4e>
ffffffff80003720: 70a2 	ld	ra, 0x28(sp)
ffffffff80003722: 7402 	ld	s0, 0x20(sp)
ffffffff80003724: 6145 	addi	sp, sp, 0x30
ffffffff80003726: 8082 	ret

ffffffff80003728 <snprintf>:
; {
ffffffff80003728: 711d 	addi	sp, sp, -0x60
ffffffff8000372a: f406 	sd	ra, 0x28(sp)
ffffffff8000372c: f022 	sd	s0, 0x20(sp)
ffffffff8000372e: 1800 	addi	s0, sp, 0x30
ffffffff80003730: 03143423     	sd	a7, 0x28(s0)
ffffffff80003734: 03043023     	sd	a6, 0x20(s0)
ffffffff80003738: ec1c 	sd	a5, 0x18(s0)
ffffffff8000373a: e818 	sd	a4, 0x10(s0)
ffffffff8000373c: e414 	sd	a3, 0x8(s0)
ffffffff8000373e: fea43423     	sd	a0, -0x18(s0)
ffffffff80003742: feb43023     	sd	a1, -0x20(s0)
ffffffff80003746: fcc43c23     	sd	a2, -0x28(s0)
ffffffff8000374a: 00840513     	addi	a0, s0, 0x8
; 	va_start(args, fmt_str);
ffffffff8000374e: fca43823     	sd	a0, -0x30(s0)
; 	vsnprintf(buf, size, fmt_str, args);
ffffffff80003752: fe843503     	ld	a0, -0x18(s0)
ffffffff80003756: fe043583     	ld	a1, -0x20(s0)
ffffffff8000375a: fd843603     	ld	a2, -0x28(s0)
ffffffff8000375e: fd043683     	ld	a3, -0x30(s0)
ffffffff80003762: d21ff0ef     	jal	0xffffffff80003482 <vsnprintf>
; }
ffffffff80003766: 70a2 	ld	ra, 0x28(sp)
ffffffff80003768: 7402 	ld	s0, 0x20(sp)
ffffffff8000376a: 6125 	addi	sp, sp, 0x60
ffffffff8000376c: 8082 	ret

ffffffff8000376e <number_truncate>:
; {
ffffffff8000376e: 7179 	addi	sp, sp, -0x30
ffffffff80003770: f406 	sd	ra, 0x28(sp)
ffffffff80003772: f022 	sd	s0, 0x20(sp)
ffffffff80003774: 1800 	addi	s0, sp, 0x30
ffffffff80003776: fea43023     	sd	a0, -0x20(s0)
ffffffff8000377a: fcb43c23     	sd	a1, -0x28(s0)
; 	size_t shift = 64 - 8 * spec->length;
ffffffff8000377e: fd843503     	ld	a0, -0x28(s0)
ffffffff80003782: 00354503     	lbu	a0, 0x3(a0)
ffffffff80003786: 00351593     	slli	a1, a0, 0x3
ffffffff8000378a: 04000513     	li	a0, 0x40
ffffffff8000378e: 8d0d 	sub	a0, a0, a1
ffffffff80003790: fca43823     	sd	a0, -0x30(s0)
; 	number <<= shift;
ffffffff80003794: fd043583     	ld	a1, -0x30(s0)
ffffffff80003798: fe043503     	ld	a0, -0x20(s0)
ffffffff8000379c: 00b51533     	sll	a0, a0, a1
ffffffff800037a0: fea43023     	sd	a0, -0x20(s0)
; 	if (spec->flags & FMT_SIGNED) {
ffffffff800037a4: fd843503     	ld	a0, -0x28(s0)
ffffffff800037a8: 00054503     	lbu	a0, 0x0(a0)
ffffffff800037ac: 8905 	andi	a0, a0, 0x1
ffffffff800037ae: c919 	beqz	a0, 0xffffffff800037c4 <number_truncate+0x56>
ffffffff800037b0: a009 	j	0xffffffff800037b2 <number_truncate+0x44>
; 		return (u64)((i64) number >> shift);
ffffffff800037b2: fe043503     	ld	a0, -0x20(s0)
ffffffff800037b6: fd043583     	ld	a1, -0x30(s0)
ffffffff800037ba: 40b55533     	sra	a0, a0, a1
ffffffff800037be: fea43423     	sd	a0, -0x18(s0)
ffffffff800037c2: a811 	j	0xffffffff800037d6 <number_truncate+0x68>
; 		return number >> shift;
ffffffff800037c4: fe043503     	ld	a0, -0x20(s0)
ffffffff800037c8: fd043583     	ld	a1, -0x30(s0)
ffffffff800037cc: 00b55533     	srl	a0, a0, a1
ffffffff800037d0: fea43423     	sd	a0, -0x18(s0)
ffffffff800037d4: a009 	j	0xffffffff800037d6 <number_truncate+0x68>
; }
ffffffff800037d6: fe843503     	ld	a0, -0x18(s0)
ffffffff800037da: 70a2 	ld	ra, 0x28(sp)
ffffffff800037dc: 7402 	ld	s0, 0x20(sp)
ffffffff800037de: 6145 	addi	sp, sp, 0x30
ffffffff800037e0: 8082 	ret

ffffffff800037e2 <number>:
; {
ffffffff800037e2: 7135 	addi	sp, sp, -0xa0
ffffffff800037e4: ed06 	sd	ra, 0x98(sp)
ffffffff800037e6: e922 	sd	s0, 0x90(sp)
ffffffff800037e8: 1100 	addi	s0, sp, 0xa0
ffffffff800037ea: fea43023     	sd	a0, -0x20(s0)
ffffffff800037ee: fcb43c23     	sd	a1, -0x28(s0)
ffffffff800037f2: fcc43823     	sd	a2, -0x30(s0)
ffffffff800037f6: fcd43423     	sd	a3, -0x38(s0)
ffffffff800037fa: 4501 	li	a0, 0x0
ffffffff800037fc: f6a43c23     	sd	a0, -0x88(s0)
; 	char tmp[64] = {0};
ffffffff80003800: fca43023     	sd	a0, -0x40(s0)
ffffffff80003804: faa43c23     	sd	a0, -0x48(s0)
ffffffff80003808: faa43823     	sd	a0, -0x50(s0)
ffffffff8000380c: faa43423     	sd	a0, -0x58(s0)
ffffffff80003810: faa43023     	sd	a0, -0x60(s0)
ffffffff80003814: f8a43c23     	sd	a0, -0x68(s0)
ffffffff80003818: f8a43823     	sd	a0, -0x70(s0)
ffffffff8000381c: f8a43423     	sd	a0, -0x78(s0)
; 	size_t i = 0;
ffffffff80003820: f8a43023     	sd	a0, -0x80(s0)
; 	if (spec->flags & FMT_SIGNED && (i64)number < 0 && size > 1) {
ffffffff80003824: fc843503     	ld	a0, -0x38(s0)
ffffffff80003828: 00054503     	lbu	a0, 0x0(a0)
ffffffff8000382c: 8905 	andi	a0, a0, 0x1
ffffffff8000382e: c139 	beqz	a0, 0xffffffff80003874 <number+0x92>
ffffffff80003830: a009 	j	0xffffffff80003832 <number+0x50>
ffffffff80003832: fd043503     	ld	a0, -0x30(s0)
ffffffff80003836: 02055f63     	bgez	a0, 0xffffffff80003874 <number+0x92>
ffffffff8000383a: a009 	j	0xffffffff8000383c <number+0x5a>
ffffffff8000383c: fd843503     	ld	a0, -0x28(s0)
ffffffff80003840: 4589 	li	a1, 0x2
ffffffff80003842: 02b56963     	bltu	a0, a1, 0xffffffff80003874 <number+0x92>
ffffffff80003846: a009 	j	0xffffffff80003848 <number+0x66>
; 		number = (u64)((i64)number * -1);
ffffffff80003848: fd043583     	ld	a1, -0x30(s0)
ffffffff8000384c: 4501 	li	a0, 0x0
ffffffff8000384e: 8d0d 	sub	a0, a0, a1
ffffffff80003850: fca43823     	sd	a0, -0x30(s0)
; 		*buf++ = '-';
ffffffff80003854: fe043583     	ld	a1, -0x20(s0)
ffffffff80003858: 00158513     	addi	a0, a1, 0x1
ffffffff8000385c: fea43023     	sd	a0, -0x20(s0)
ffffffff80003860: 02d00513     	li	a0, 0x2d
ffffffff80003864: 00a58023     	sb	a0, 0x0(a1)
; 		size--;
ffffffff80003868: fd843503     	ld	a0, -0x28(s0)
ffffffff8000386c: 157d 	addi	a0, a0, -0x1
ffffffff8000386e: fca43c23     	sd	a0, -0x28(s0)
; 	}
ffffffff80003872: a009 	j	0xffffffff80003874 <number+0x92>
; 	if (spec->flags & FMT_PREFIX && size > 2) {
ffffffff80003874: fc843503     	ld	a0, -0x38(s0)
ffffffff80003878: 00054503     	lbu	a0, 0x0(a0)
ffffffff8000387c: 8921 	andi	a0, a0, 0x8
ffffffff8000387e: c131 	beqz	a0, 0xffffffff800038c2 <number+0xe0>
ffffffff80003880: a009 	j	0xffffffff80003882 <number+0xa0>
ffffffff80003882: fd843503     	ld	a0, -0x28(s0)
ffffffff80003886: 458d 	li	a1, 0x3
ffffffff80003888: 02b56d63     	bltu	a0, a1, 0xffffffff800038c2 <number+0xe0>
ffffffff8000388c: a009 	j	0xffffffff8000388e <number+0xac>
; 		*buf++ = '0';
ffffffff8000388e: fe043583     	ld	a1, -0x20(s0)
ffffffff80003892: 00158513     	addi	a0, a1, 0x1
ffffffff80003896: fea43023     	sd	a0, -0x20(s0)
ffffffff8000389a: 03000513     	li	a0, 0x30
ffffffff8000389e: 00a58023     	sb	a0, 0x0(a1)
; 		*buf++ = 'x';
ffffffff800038a2: fe043583     	ld	a1, -0x20(s0)
ffffffff800038a6: 00158513     	addi	a0, a1, 0x1
ffffffff800038aa: fea43023     	sd	a0, -0x20(s0)
ffffffff800038ae: 07800513     	li	a0, 0x78
ffffffff800038b2: 00a58023     	sb	a0, 0x0(a1)
; 		size -= 2;
ffffffff800038b6: fd843503     	ld	a0, -0x28(s0)
ffffffff800038ba: 1579 	addi	a0, a0, -0x2
ffffffff800038bc: fca43c23     	sd	a0, -0x28(s0)
; 	}
ffffffff800038c0: a009 	j	0xffffffff800038c2 <number+0xe0>
; 	if (number == 0) {
ffffffff800038c2: fd043503     	ld	a0, -0x30(s0)
ffffffff800038c6: e10d 	bnez	a0, 0xffffffff800038e8 <number+0x106>
ffffffff800038c8: a009 	j	0xffffffff800038ca <number+0xe8>
; 		*buf++ = '0';
ffffffff800038ca: fe043583     	ld	a1, -0x20(s0)
ffffffff800038ce: 00158513     	addi	a0, a1, 0x1
ffffffff800038d2: fea43023     	sd	a0, -0x20(s0)
ffffffff800038d6: 03000513     	li	a0, 0x30
ffffffff800038da: 00a58023     	sb	a0, 0x0(a1)
; 		return buf;
ffffffff800038de: fe043503     	ld	a0, -0x20(s0)
ffffffff800038e2: fea43423     	sd	a0, -0x18(s0)
ffffffff800038e6: aab5 	j	0xffffffff80003a62 <number+0x280>
; 	digits = (spec->flags & FMT_UPPERCASE) ? upper : lower;
ffffffff800038e8: fc843503     	ld	a0, -0x38(s0)
ffffffff800038ec: 00054503     	lbu	a0, 0x0(a0)
ffffffff800038f0: 8911 	andi	a0, a0, 0x4
ffffffff800038f2: c911 	beqz	a0, 0xffffffff80003906 <number+0x124>
ffffffff800038f4: a009 	j	0xffffffff800038f6 <number+0x114>
ffffffff800038f6: 0004f517     	auipc	a0, 0x4f
ffffffff800038fa: 71a50513     	addi	a0, a0, 0x71a
ffffffff800038fe: 6108 	ld	a0, 0x0(a0)
ffffffff80003900: f6a43823     	sd	a0, -0x90(s0)
ffffffff80003904: a809 	j	0xffffffff80003916 <number+0x134>
ffffffff80003906: 0004f517     	auipc	a0, 0x4f
ffffffff8000390a: 71250513     	addi	a0, a0, 0x712
ffffffff8000390e: 6108 	ld	a0, 0x0(a0)
ffffffff80003910: f6a43823     	sd	a0, -0x90(s0)
ffffffff80003914: a009 	j	0xffffffff80003916 <number+0x134>
ffffffff80003916: f7043503     	ld	a0, -0x90(s0)
; 	digits = (spec->flags & FMT_UPPERCASE) ? upper : lower;
ffffffff8000391a: 00004597     	auipc	a1, 0x4
ffffffff8000391e: 6e658593     	addi	a1, a1, 0x6e6
ffffffff80003922: e188 	sd	a0, 0x0(a1)
; 	while (number > 0) {
ffffffff80003924: a009 	j	0xffffffff80003926 <number+0x144>
ffffffff80003926: fd043503     	ld	a0, -0x30(s0)
ffffffff8000392a: c921 	beqz	a0, 0xffffffff8000397a <number+0x198>
ffffffff8000392c: a009 	j	0xffffffff8000392e <number+0x14c>
; 		tmp[i++] = digits[number % spec->base];
ffffffff8000392e: 00004517     	auipc	a0, 0x4
ffffffff80003932: 6d250513     	addi	a0, a0, 0x6d2
ffffffff80003936: 6108 	ld	a0, 0x0(a0)
ffffffff80003938: fd043583     	ld	a1, -0x30(s0)
ffffffff8000393c: fc843603     	ld	a2, -0x38(s0)
ffffffff80003940: 00164603     	lbu	a2, 0x1(a2)
ffffffff80003944: 02c5f5b3     	remu	a1, a1, a2
ffffffff80003948: 952e 	add	a0, a0, a1
ffffffff8000394a: 00054503     	lbu	a0, 0x0(a0)
ffffffff8000394e: f8043603     	ld	a2, -0x80(s0)
ffffffff80003952: 00160593     	addi	a1, a2, 0x1
ffffffff80003956: f8b43023     	sd	a1, -0x80(s0)
ffffffff8000395a: f8840593     	addi	a1, s0, -0x78
ffffffff8000395e: 95b2 	add	a1, a1, a2
ffffffff80003960: 00a58023     	sb	a0, 0x0(a1)
; 		number /= spec->base;
ffffffff80003964: fc843503     	ld	a0, -0x38(s0)
ffffffff80003968: 00154583     	lbu	a1, 0x1(a0)
ffffffff8000396c: fd043503     	ld	a0, -0x30(s0)
ffffffff80003970: 02b55533     	divu	a0, a0, a1
ffffffff80003974: fca43823     	sd	a0, -0x30(s0)
; 	while (number > 0) {
ffffffff80003978: b77d 	j	0xffffffff80003926 <number+0x144>
; 	if (spec->flags & FMT_ZERO_PADDING && spec->width > i) {
ffffffff8000397a: fc843503     	ld	a0, -0x38(s0)
ffffffff8000397e: 00054503     	lbu	a0, 0x0(a0)
ffffffff80003982: 8909 	andi	a0, a0, 0x2
ffffffff80003984: cd3d 	beqz	a0, 0xffffffff80003a02 <number+0x220>
ffffffff80003986: a009 	j	0xffffffff80003988 <number+0x1a6>
ffffffff80003988: fc843503     	ld	a0, -0x38(s0)
ffffffff8000398c: 00254583     	lbu	a1, 0x2(a0)
ffffffff80003990: f8043503     	ld	a0, -0x80(s0)
ffffffff80003994: 06b57763     	bgeu	a0, a1, 0xffffffff80003a02 <number+0x220>
ffffffff80003998: a009 	j	0xffffffff8000399a <number+0x1b8>
; 		spec->width -= i;
ffffffff8000399a: f8043603     	ld	a2, -0x80(s0)
ffffffff8000399e: fc843583     	ld	a1, -0x38(s0)
ffffffff800039a2: 0025c503     	lbu	a0, 0x2(a1)
ffffffff800039a6: 9d11 	subw	a0, a0, a2
ffffffff800039a8: 00a58123     	sb	a0, 0x2(a1)
; 		while (spec->width-- > 0 && --size > 0) {
ffffffff800039ac: a009 	j	0xffffffff800039ae <number+0x1cc>
ffffffff800039ae: fc843603     	ld	a2, -0x38(s0)
ffffffff800039b2: 00264583     	lbu	a1, 0x2(a2)
ffffffff800039b6: fff5851b     	addiw	a0, a1, -0x1
ffffffff800039ba: 00a60123     	sb	a0, 0x2(a2)
ffffffff800039be: 4501 	li	a0, 0x0
ffffffff800039c0: 862a 	mv	a2, a0
ffffffff800039c2: f6c43423     	sd	a2, -0x98(s0)
ffffffff800039c6: 00b55d63     	bge	a0, a1, 0xffffffff800039e0 <number+0x1fe>
ffffffff800039ca: a009 	j	0xffffffff800039cc <number+0x1ea>
ffffffff800039cc: fd843503     	ld	a0, -0x28(s0)
ffffffff800039d0: 157d 	addi	a0, a0, -0x1
ffffffff800039d2: fca43c23     	sd	a0, -0x28(s0)
ffffffff800039d6: 00a03533     	snez	a0, a0
ffffffff800039da: f6a43423     	sd	a0, -0x98(s0)
ffffffff800039de: a009 	j	0xffffffff800039e0 <number+0x1fe>
ffffffff800039e0: f6843503     	ld	a0, -0x98(s0)
; 		while (spec->width-- > 0 && --size > 0) {
ffffffff800039e4: 8905 	andi	a0, a0, 0x1
ffffffff800039e6: cd09 	beqz	a0, 0xffffffff80003a00 <number+0x21e>
ffffffff800039e8: a009 	j	0xffffffff800039ea <number+0x208>
; 			*buf++ = '0';
ffffffff800039ea: fe043583     	ld	a1, -0x20(s0)
ffffffff800039ee: 00158513     	addi	a0, a1, 0x1
ffffffff800039f2: fea43023     	sd	a0, -0x20(s0)
ffffffff800039f6: 03000513     	li	a0, 0x30
ffffffff800039fa: 00a58023     	sb	a0, 0x0(a1)
; 		while (spec->width-- > 0 && --size > 0) {
ffffffff800039fe: bf45 	j	0xffffffff800039ae <number+0x1cc>
; 	}
ffffffff80003a00: a009 	j	0xffffffff80003a02 <number+0x220>
; 	while (i-- > 0 && --size > 0) {
ffffffff80003a02: a009 	j	0xffffffff80003a04 <number+0x222>
ffffffff80003a04: f8043503     	ld	a0, -0x80(s0)
ffffffff80003a08: fff50593     	addi	a1, a0, -0x1
ffffffff80003a0c: f8b43023     	sd	a1, -0x80(s0)
ffffffff80003a10: 4581 	li	a1, 0x0
ffffffff80003a12: f6b43023     	sd	a1, -0xa0(s0)
ffffffff80003a16: cd01 	beqz	a0, 0xffffffff80003a2e <number+0x24c>
ffffffff80003a18: a009 	j	0xffffffff80003a1a <number+0x238>
ffffffff80003a1a: fd843503     	ld	a0, -0x28(s0)
ffffffff80003a1e: 157d 	addi	a0, a0, -0x1
ffffffff80003a20: fca43c23     	sd	a0, -0x28(s0)
ffffffff80003a24: 00a03533     	snez	a0, a0
ffffffff80003a28: f6a43023     	sd	a0, -0xa0(s0)
ffffffff80003a2c: a009 	j	0xffffffff80003a2e <number+0x24c>
ffffffff80003a2e: f6043503     	ld	a0, -0xa0(s0)
; 	while (i-- > 0 && --size > 0) {
ffffffff80003a32: 8905 	andi	a0, a0, 0x1
ffffffff80003a34: c115 	beqz	a0, 0xffffffff80003a58 <number+0x276>
ffffffff80003a36: a009 	j	0xffffffff80003a38 <number+0x256>
; 		*buf++ = tmp[i];
ffffffff80003a38: f8043583     	ld	a1, -0x80(s0)
ffffffff80003a3c: f8840513     	addi	a0, s0, -0x78
ffffffff80003a40: 952e 	add	a0, a0, a1
ffffffff80003a42: 00054503     	lbu	a0, 0x0(a0)
ffffffff80003a46: fe043583     	ld	a1, -0x20(s0)
ffffffff80003a4a: 00158613     	addi	a2, a1, 0x1
ffffffff80003a4e: fec43023     	sd	a2, -0x20(s0)
ffffffff80003a52: 00a58023     	sb	a0, 0x0(a1)
; 	while (i-- > 0 && --size > 0) {
ffffffff80003a56: b77d 	j	0xffffffff80003a04 <number+0x222>
; 	return buf;
ffffffff80003a58: fe043503     	ld	a0, -0x20(s0)
ffffffff80003a5c: fea43423     	sd	a0, -0x18(s0)
ffffffff80003a60: a009 	j	0xffffffff80003a62 <number+0x280>
; }
ffffffff80003a62: fe843503     	ld	a0, -0x18(s0)
ffffffff80003a66: 60ea 	ld	ra, 0x98(sp)
ffffffff80003a68: 644a 	ld	s0, 0x90(sp)
ffffffff80003a6a: 610d 	addi	sp, sp, 0xa0
ffffffff80003a6c: 8082 	ret

ffffffff80003a6e <string>:
; {
ffffffff80003a6e: 7179 	addi	sp, sp, -0x30
ffffffff80003a70: f406 	sd	ra, 0x28(sp)
ffffffff80003a72: f022 	sd	s0, 0x20(sp)
ffffffff80003a74: 1800 	addi	s0, sp, 0x30
ffffffff80003a76: fea43423     	sd	a0, -0x18(s0)
ffffffff80003a7a: feb43023     	sd	a1, -0x20(s0)
ffffffff80003a7e: fcc43c23     	sd	a2, -0x28(s0)
; 	while (size > 0 && *str != 0) {
ffffffff80003a82: a009 	j	0xffffffff80003a84 <string+0x16>
ffffffff80003a84: fe043503     	ld	a0, -0x20(s0)
ffffffff80003a88: 4581 	li	a1, 0x0
ffffffff80003a8a: fcb43823     	sd	a1, -0x30(s0)
ffffffff80003a8e: c919 	beqz	a0, 0xffffffff80003aa4 <string+0x36>
ffffffff80003a90: a009 	j	0xffffffff80003a92 <string+0x24>
ffffffff80003a92: fd843503     	ld	a0, -0x28(s0)
ffffffff80003a96: 00054503     	lbu	a0, 0x0(a0)
ffffffff80003a9a: 00a03533     	snez	a0, a0
ffffffff80003a9e: fca43823     	sd	a0, -0x30(s0)
ffffffff80003aa2: a009 	j	0xffffffff80003aa4 <string+0x36>
ffffffff80003aa4: fd043503     	ld	a0, -0x30(s0)
; 	while (size > 0 && *str != 0) {
ffffffff80003aa8: 8905 	andi	a0, a0, 0x1
ffffffff80003aaa: c905 	beqz	a0, 0xffffffff80003ada <string+0x6c>
ffffffff80003aac: a009 	j	0xffffffff80003aae <string+0x40>
; 		*buf++ = *str++;
ffffffff80003aae: fd843503     	ld	a0, -0x28(s0)
ffffffff80003ab2: 00150593     	addi	a1, a0, 0x1
ffffffff80003ab6: fcb43c23     	sd	a1, -0x28(s0)
ffffffff80003aba: 00054503     	lbu	a0, 0x0(a0)
ffffffff80003abe: fe843583     	ld	a1, -0x18(s0)
ffffffff80003ac2: 00158613     	addi	a2, a1, 0x1
ffffffff80003ac6: fec43423     	sd	a2, -0x18(s0)
ffffffff80003aca: 00a58023     	sb	a0, 0x0(a1)
; 		size--;
ffffffff80003ace: fe043503     	ld	a0, -0x20(s0)
ffffffff80003ad2: 157d 	addi	a0, a0, -0x1
ffffffff80003ad4: fea43023     	sd	a0, -0x20(s0)
; 	while (size > 0 && *str != 0) {
ffffffff80003ad8: b775 	j	0xffffffff80003a84 <string+0x16>
; 	return buf;
ffffffff80003ada: fe843503     	ld	a0, -0x18(s0)
ffffffff80003ade: 70a2 	ld	ra, 0x28(sp)
ffffffff80003ae0: 7402 	ld	s0, 0x20(sp)
ffffffff80003ae2: 6145 	addi	sp, sp, 0x30
ffffffff80003ae4: 8082 	ret

ffffffff80003ae6 <character>:
; {
ffffffff80003ae6: 7179 	addi	sp, sp, -0x30
ffffffff80003ae8: f406 	sd	ra, 0x28(sp)
ffffffff80003aea: f022 	sd	s0, 0x20(sp)
ffffffff80003aec: 1800 	addi	s0, sp, 0x30
ffffffff80003aee: fea43423     	sd	a0, -0x18(s0)
ffffffff80003af2: feb43023     	sd	a1, -0x20(s0)
ffffffff80003af6: fcc40fa3     	sb	a2, -0x21(s0)
; 	if (--size > 0) {
ffffffff80003afa: fe043503     	ld	a0, -0x20(s0)
ffffffff80003afe: 157d 	addi	a0, a0, -0x1
ffffffff80003b00: fea43023     	sd	a0, -0x20(s0)
ffffffff80003b04: cd09 	beqz	a0, 0xffffffff80003b1e <character+0x38>
ffffffff80003b06: a009 	j	0xffffffff80003b08 <character+0x22>
; 		*buf++ = (char)c;
ffffffff80003b08: fdf44503     	lbu	a0, -0x21(s0)
ffffffff80003b0c: fe843583     	ld	a1, -0x18(s0)
ffffffff80003b10: 00158613     	addi	a2, a1, 0x1
ffffffff80003b14: fec43423     	sd	a2, -0x18(s0)
ffffffff80003b18: 00a58023     	sb	a0, 0x0(a1)
; 	}
ffffffff80003b1c: a009 	j	0xffffffff80003b1e <character+0x38>
; 	return buf;
ffffffff80003b1e: fe843503     	ld	a0, -0x18(s0)
ffffffff80003b22: 70a2 	ld	ra, 0x28(sp)
ffffffff80003b24: 7402 	ld	s0, 0x20(sp)
ffffffff80003b26: 6145 	addi	sp, sp, 0x30
ffffffff80003b28: 8082 	ret

ffffffff80003b2a <pointer>:
; {
ffffffff80003b2a: 7179 	addi	sp, sp, -0x30
ffffffff80003b2c: f406 	sd	ra, 0x28(sp)
ffffffff80003b2e: f022 	sd	s0, 0x20(sp)
ffffffff80003b30: 1800 	addi	s0, sp, 0x30
ffffffff80003b32: fea43423     	sd	a0, -0x18(s0)
ffffffff80003b36: feb43023     	sd	a1, -0x20(s0)
ffffffff80003b3a: fcc43c23     	sd	a2, -0x28(s0)
ffffffff80003b3e: fcd43823     	sd	a3, -0x30(s0)
; 	return number(buf, size, ptr, spec);
ffffffff80003b42: fe843503     	ld	a0, -0x18(s0)
ffffffff80003b46: fe043583     	ld	a1, -0x20(s0)
ffffffff80003b4a: fd843603     	ld	a2, -0x28(s0)
ffffffff80003b4e: fd043683     	ld	a3, -0x30(s0)
ffffffff80003b52: c91ff0ef     	jal	0xffffffff800037e2 <number>
ffffffff80003b56: 70a2 	ld	ra, 0x28(sp)
ffffffff80003b58: 7402 	ld	s0, 0x20(sp)
ffffffff80003b5a: 6145 	addi	sp, sp, 0x30
ffffffff80003b5c: 8082 	ret

ffffffff80003b5e <mm_init_kmap>:
; void mm_init_kmap() {
ffffffff80003b5e: 1101 	addi	sp, sp, -0x20
ffffffff80003b60: ec06 	sd	ra, 0x18(sp)
ffffffff80003b62: e822 	sd	s0, 0x10(sp)
ffffffff80003b64: 1000 	addi	s0, sp, 0x20
; 	debug("\nreading kernel virtual memory layout map...\n");
ffffffff80003b66: 0004e517     	auipc	a0, 0x4e
ffffffff80003b6a: 6f250593     	addi	a1, a0, 0x6f2
ffffffff80003b6e: 4511 	li	a0, 0x4
ffffffff80003b70: fea43423     	sd	a0, -0x18(s0)
ffffffff80003b74: 8a7ff0ef     	jal	0xffffffff8000341a <printk>
ffffffff80003b78: fe843503     	ld	a0, -0x18(s0)
; 	kmap.phys_offset = KERNEL_PHYS_OFFSET;
ffffffff80003b7c: 00004597     	auipc	a1, 0x4
ffffffff80003b80: 48c58593     	addi	a1, a1, 0x48c
ffffffff80003b84: feb43023     	sd	a1, -0x20(s0)
ffffffff80003b88: 567d 	li	a2, -0x1
ffffffff80003b8a: 1602 	slli	a2, a2, 0x20
ffffffff80003b8c: e190 	sd	a2, 0x0(a1)
; 	debug("phys_offset = %#x\n", kmap.phys_offset);
ffffffff80003b8e: 6190 	ld	a2, 0x0(a1)
ffffffff80003b90: 0004f597     	auipc	a1, 0x4f
ffffffff80003b94: 02b58593     	addi	a1, a1, 0x2b
ffffffff80003b98: 883ff0ef     	jal	0xffffffff8000341a <printk>
ffffffff80003b9c: fe043583     	ld	a1, -0x20(s0)
ffffffff80003ba0: fe843503     	ld	a0, -0x18(s0)
; 	kmap.kernel_start = (phys_addr_t) _start;
ffffffff80003ba4: ffffc617     	auipc	a2, 0xffffc
ffffffff80003ba8: 45c60613     	addi	a2, a2, 0x45c
ffffffff80003bac: e590 	sd	a2, 0x8(a1)
; 	kmap.kernel_end = (phys_addr_t) _end;
ffffffff80003bae: 00050617     	auipc	a2, 0x50
ffffffff80003bb2: 45260613     	addi	a2, a2, 0x452
ffffffff80003bb6: e990 	sd	a2, 0x10(a1)
; 	kmap.kernel_size = kmap.kernel_end - kmap.kernel_start;
ffffffff80003bb8: 6990 	ld	a2, 0x10(a1)
ffffffff80003bba: 6594 	ld	a3, 0x8(a1)
ffffffff80003bbc: 8e15 	sub	a2, a2, a3
ffffffff80003bbe: ed90 	sd	a2, 0x18(a1)
; 	kmap.text_start = (phys_addr_t) _text_start;
ffffffff80003bc0: fffff617     	auipc	a2, 0xfffff
ffffffff80003bc4: 44060613     	addi	a2, a2, 0x440
ffffffff80003bc8: f190 	sd	a2, 0x20(a1)
; 	kmap.text_end = (phys_addr_t) _text_end;
ffffffff80003bca: 00003617     	auipc	a2, 0x3
ffffffff80003bce: 9ca60613     	addi	a2, a2, -0x636
ffffffff80003bd2: f590 	sd	a2, 0x28(a1)
; 	kmap.bss_start = (phys_addr_t) _bss_start;
ffffffff80003bd4: 00003617     	auipc	a2, 0x3
ffffffff80003bd8: 42c60613     	addi	a2, a2, 0x42c
ffffffff80003bdc: f990 	sd	a2, 0x30(a1)
; 	kmap.bss_end = (phys_addr_t) _bss_end;
ffffffff80003bde: 0004d617     	auipc	a2, 0x4d
ffffffff80003be2: 4f660613     	addi	a2, a2, 0x4f6
ffffffff80003be6: fd90 	sd	a2, 0x38(a1)
; 	kmap.rodata_start = (phys_addr_t) _rodata_start;
ffffffff80003be8: 0004e617     	auipc	a2, 0x4e
ffffffff80003bec: 41860613     	addi	a2, a2, 0x418
ffffffff80003bf0: e1b0 	sd	a2, 0x40(a1)
; 	kmap.rodata_end = (phys_addr_t) _rodata_end;
ffffffff80003bf2: 0004f617     	auipc	a2, 0x4f
ffffffff80003bf6: 40160613     	addi	a2, a2, 0x401
ffffffff80003bfa: e5b0 	sd	a2, 0x48(a1)
; 	kmap.data_start = (phys_addr_t) _data_start;
ffffffff80003bfc: 0004f617     	auipc	a2, 0x4f
ffffffff80003c00: 40460613     	addi	a2, a2, 0x404
ffffffff80003c04: e9b0 	sd	a2, 0x50(a1)
; 	kmap.data_end = (phys_addr_t) _data_end;
ffffffff80003c06: 0004f617     	auipc	a2, 0x4f
ffffffff80003c0a: 41a60613     	addi	a2, a2, 0x41a
ffffffff80003c0e: edb0 	sd	a2, 0x58(a1)
; 	debug("kernel_start = %p\n", kmap.kernel_start);
ffffffff80003c10: 6590 	ld	a2, 0x8(a1)
ffffffff80003c12: 0004f597     	auipc	a1, 0x4f
ffffffff80003c16: 9b058593     	addi	a1, a1, -0x650
ffffffff80003c1a: 801ff0ef     	jal	0xffffffff8000341a <printk>
ffffffff80003c1e: fe043583     	ld	a1, -0x20(s0)
ffffffff80003c22: fe843503     	ld	a0, -0x18(s0)
; 	debug("kernel_end = %p\n", kmap.kernel_end);
ffffffff80003c26: 6990 	ld	a2, 0x10(a1)
ffffffff80003c28: 0004f597     	auipc	a1, 0x4f
ffffffff80003c2c: fa658593     	addi	a1, a1, -0x5a
ffffffff80003c30: feaff0ef     	jal	0xffffffff8000341a <printk>
ffffffff80003c34: fe043583     	ld	a1, -0x20(s0)
ffffffff80003c38: fe843503     	ld	a0, -0x18(s0)
; 	debug("kernel_size = %p\n", kmap.kernel_size);
ffffffff80003c3c: 6d90 	ld	a2, 0x18(a1)
ffffffff80003c3e: 0004f597     	auipc	a1, 0x4f
ffffffff80003c42: a2e58593     	addi	a1, a1, -0x5d2
ffffffff80003c46: fd4ff0ef     	jal	0xffffffff8000341a <printk>
ffffffff80003c4a: fe043583     	ld	a1, -0x20(s0)
ffffffff80003c4e: fe843503     	ld	a0, -0x18(s0)
; 	debug("text_start = %p\n", kmap.text_start);
ffffffff80003c52: 7190 	ld	a2, 0x20(a1)
ffffffff80003c54: 0004e597     	auipc	a1, 0x4e
ffffffff80003c58: 73e58593     	addi	a1, a1, 0x73e
ffffffff80003c5c: fbeff0ef     	jal	0xffffffff8000341a <printk>
ffffffff80003c60: fe043583     	ld	a1, -0x20(s0)
ffffffff80003c64: fe843503     	ld	a0, -0x18(s0)
; 	debug("text_end = %p\n", kmap.text_end);
ffffffff80003c68: 7590 	ld	a2, 0x28(a1)
ffffffff80003c6a: 0004e597     	auipc	a1, 0x4e
ffffffff80003c6e: 6b258593     	addi	a1, a1, 0x6b2
ffffffff80003c72: fa8ff0ef     	jal	0xffffffff8000341a <printk>
ffffffff80003c76: fe043583     	ld	a1, -0x20(s0)
ffffffff80003c7a: fe843503     	ld	a0, -0x18(s0)
; 	debug("bss_start = %p\n", kmap.bss_start);
ffffffff80003c7e: 7990 	ld	a2, 0x30(a1)
ffffffff80003c80: 0004f597     	auipc	a1, 0x4f
ffffffff80003c84: f5f58593     	addi	a1, a1, -0xa1
ffffffff80003c88: f92ff0ef     	jal	0xffffffff8000341a <printk>
ffffffff80003c8c: fe043583     	ld	a1, -0x20(s0)
ffffffff80003c90: fe843503     	ld	a0, -0x18(s0)
; 	debug("bss_end = %p\n", kmap.bss_end);
ffffffff80003c94: 7d90 	ld	a2, 0x38(a1)
ffffffff80003c96: 0004f597     	auipc	a1, 0x4f
ffffffff80003c9a: 26c58593     	addi	a1, a1, 0x26c
ffffffff80003c9e: f7cff0ef     	jal	0xffffffff8000341a <printk>
ffffffff80003ca2: fe043583     	ld	a1, -0x20(s0)
ffffffff80003ca6: fe843503     	ld	a0, -0x18(s0)
; 	debug("rodata_start = %p\n", kmap.rodata_start);
ffffffff80003caa: 61b0 	ld	a2, 0x40(a1)
ffffffff80003cac: 0004f597     	auipc	a1, 0x4f
ffffffff80003cb0: fbe58593     	addi	a1, a1, -0x42
ffffffff80003cb4: f66ff0ef     	jal	0xffffffff8000341a <printk>
ffffffff80003cb8: fe043583     	ld	a1, -0x20(s0)
ffffffff80003cbc: fe843503     	ld	a0, -0x18(s0)
; 	debug("rodata_end = %p\n", kmap.rodata_end);
ffffffff80003cc0: 65b0 	ld	a2, 0x48(a1)
ffffffff80003cc2: 0004f597     	auipc	a1, 0x4f
ffffffff80003cc6: 1bf58593     	addi	a1, a1, 0x1bf
ffffffff80003cca: f50ff0ef     	jal	0xffffffff8000341a <printk>
ffffffff80003cce: fe043583     	ld	a1, -0x20(s0)
ffffffff80003cd2: fe843503     	ld	a0, -0x18(s0)
; 	debug("data_start = %p\n", kmap.data_start);
ffffffff80003cd6: 69b0 	ld	a2, 0x50(a1)
ffffffff80003cd8: 0004e597     	auipc	a1, 0x4e
ffffffff80003cdc: 65358593     	addi	a1, a1, 0x653
ffffffff80003ce0: f3aff0ef     	jal	0xffffffff8000341a <printk>
ffffffff80003ce4: fe043583     	ld	a1, -0x20(s0)
ffffffff80003ce8: fe843503     	ld	a0, -0x18(s0)
; 	debug("data_end = %p\n", kmap.data_end);
ffffffff80003cec: 6db0 	ld	a2, 0x58(a1)
ffffffff80003cee: 0004f597     	auipc	a1, 0x4f
ffffffff80003cf2: f6158593     	addi	a1, a1, -0x9f
ffffffff80003cf6: f24ff0ef     	jal	0xffffffff8000341a <printk>
ffffffff80003cfa: fe843503     	ld	a0, -0x18(s0)
; 	debug("\n");
ffffffff80003cfe: 0004f597     	auipc	a1, 0x4f
ffffffff80003d02: d8058593     	addi	a1, a1, -0x280
ffffffff80003d06: f14ff0ef     	jal	0xffffffff8000341a <printk>
; }
ffffffff80003d0a: 60e2 	ld	ra, 0x18(sp)
ffffffff80003d0c: 6442 	ld	s0, 0x10(sp)
ffffffff80003d0e: 6105 	addi	sp, sp, 0x20
ffffffff80003d10: 8082 	ret

ffffffff80003d12 <vm_init_kernel_direct_map>:
; {
ffffffff80003d12: 7159 	addi	sp, sp, -0x70
ffffffff80003d14: f486 	sd	ra, 0x68(sp)
ffffffff80003d16: f0a2 	sd	s0, 0x60(sp)
ffffffff80003d18: 1880 	addi	s0, sp, 0x70
; 	struct pgtable *ptb = kernel_root_ptb;
ffffffff80003d1a: 00004517     	auipc	a0, 0x4
ffffffff80003d1e: 34e50513     	addi	a0, a0, 0x34e
ffffffff80003d22: 6108 	ld	a0, 0x0(a0)
ffffffff80003d24: fca43023     	sd	a0, -0x40(s0)
ffffffff80003d28: 4501 	li	a0, 0x0
; 	for (u64 i = 0; i < KERNEL_DIRECT_MAP_SIZE / SIZE_1G; i++) {
ffffffff80003d2a: f8a43c23     	sd	a0, -0x68(s0)
ffffffff80003d2e: a009 	j	0xffffffff80003d30 <vm_init_kernel_direct_map+0x1e>
ffffffff80003d30: f9843583     	ld	a1, -0x68(s0)
ffffffff80003d34: 457d 	li	a0, 0x1f
ffffffff80003d36: 0cb56d63     	bltu	a0, a1, 0xffffffff80003e10 <vm_init_kernel_direct_map+0xfe>
ffffffff80003d3a: a009 	j	0xffffffff80003d3c <vm_init_kernel_direct_map+0x2a>
; 		pa = i * SIZE_1G;
ffffffff80003d3c: f9843503     	ld	a0, -0x68(s0)
ffffffff80003d40: 057a 	slli	a0, a0, 0x1e
ffffffff80003d42: faa43823     	sd	a0, -0x50(s0)
; 		va = KERNEL_DIRECT_MAP_START + pa;
ffffffff80003d46: fb043503     	ld	a0, -0x50(s0)
ffffffff80003d4a: 55fd 	li	a1, -0x1
ffffffff80003d4c: 159a 	slli	a1, a1, 0x26
ffffffff80003d4e: 952e 	add	a0, a0, a1
ffffffff80003d50: faa43c23     	sd	a0, -0x48(s0)
; 		idx = va_get_index(va, 2);
ffffffff80003d54: fb843503     	ld	a0, -0x48(s0)
ffffffff80003d58: fca43823     	sd	a0, -0x30(s0)
ffffffff80003d5c: 4509 	li	a0, 0x2
ffffffff80003d5e: fca43423     	sd	a0, -0x38(s0)
; 	switch (level) {
ffffffff80003d62: fc843503     	ld	a0, -0x38(s0)
ffffffff80003d66: f8a43823     	sd	a0, -0x70(s0)
ffffffff80003d6a: cd05 	beqz	a0, 0xffffffff80003da2 <vm_init_kernel_direct_map+0x90>
ffffffff80003d6c: a009 	j	0xffffffff80003d6e <vm_init_kernel_direct_map+0x5c>
ffffffff80003d6e: f9043503     	ld	a0, -0x70(s0)
ffffffff80003d72: 4585 	li	a1, 0x1
; 	switch (level) {
ffffffff80003d74: 02b50063     	beq	a0, a1, 0xffffffff80003d94 <vm_init_kernel_direct_map+0x82>
ffffffff80003d78: a009 	j	0xffffffff80003d7a <vm_init_kernel_direct_map+0x68>
ffffffff80003d7a: f9043503     	ld	a0, -0x70(s0)
ffffffff80003d7e: 4589 	li	a1, 0x2
; 	switch (level) {
ffffffff80003d80: 02b51863     	bne	a0, a1, 0xffffffff80003db0 <vm_init_kernel_direct_map+0x9e>
ffffffff80003d84: a009 	j	0xffffffff80003d86 <vm_init_kernel_direct_map+0x74>
; 			return (va & VPN_MASK_L2) >> (VPN_SHIFT_L2);
ffffffff80003d86: fd043503     	ld	a0, -0x30(s0)
ffffffff80003d8a: 0566 	slli	a0, a0, 0x19
ffffffff80003d8c: 915d 	srli	a0, a0, 0x37
ffffffff80003d8e: fca43c23     	sd	a0, -0x28(s0)
ffffffff80003d92: a03d 	j	0xffffffff80003dc0 <vm_init_kernel_direct_map+0xae>
; 			return (va & VPN_MASK_L1) >> (VPN_SHIFT_L1);
ffffffff80003d94: fd043503     	ld	a0, -0x30(s0)
ffffffff80003d98: 150a 	slli	a0, a0, 0x22
ffffffff80003d9a: 915d 	srli	a0, a0, 0x37
ffffffff80003d9c: fca43c23     	sd	a0, -0x28(s0)
ffffffff80003da0: a005 	j	0xffffffff80003dc0 <vm_init_kernel_direct_map+0xae>
; 			return (va & VPN_MASK_L0) >> (VPN_SHIFT_L0);
ffffffff80003da2: fd043503     	ld	a0, -0x30(s0)
ffffffff80003da6: 152e 	slli	a0, a0, 0x2b
ffffffff80003da8: 915d 	srli	a0, a0, 0x37
ffffffff80003daa: fca43c23     	sd	a0, -0x28(s0)
ffffffff80003dae: a809 	j	0xffffffff80003dc0 <vm_init_kernel_direct_map+0xae>
; 			panic("ERROR: va_get_index: page table level %d doesn't exist!\n", level);
ffffffff80003db0: fc843583     	ld	a1, -0x38(s0)
ffffffff80003db4: 0004e517     	auipc	a0, 0x4e
ffffffff80003db8: 76850513     	addi	a0, a0, 0x768
ffffffff80003dbc: 727000ef     	jal	0xffffffff80004ce2 <panic>
; }
ffffffff80003dc0: fd843503     	ld	a0, -0x28(s0)
; 		idx = va_get_index(va, 2);
ffffffff80003dc4: faa43023     	sd	a0, -0x60(s0)
; 		pte = pte_from_ppn(phys_to_ppn(pa));
ffffffff80003dc8: fb043503     	ld	a0, -0x50(s0)
ffffffff80003dcc: fea43423     	sd	a0, -0x18(s0)
; 	return (ppn_t) phys >> PAGE_SHIFT;
ffffffff80003dd0: fe843503     	ld	a0, -0x18(s0)
ffffffff80003dd4: 8131 	srli	a0, a0, 0xc
ffffffff80003dd6: fea43023     	sd	a0, -0x20(s0)
; 	return (pte_t) ppn << PTE_SHIFT;
ffffffff80003dda: fe043503     	ld	a0, -0x20(s0)
ffffffff80003dde: 052a 	slli	a0, a0, 0xa
; 		pte = pte_from_ppn(phys_to_ppn(pa));
ffffffff80003de0: faa43423     	sd	a0, -0x58(s0)
; 		pte |= (PTE_READ | PTE_WRITE | PTE_EXEC | PTE_VALID);
ffffffff80003de4: fa843503     	ld	a0, -0x58(s0)
ffffffff80003de8: 00f56513     	ori	a0, a0, 0xf
ffffffff80003dec: faa43423     	sd	a0, -0x58(s0)
; 		ptb->entries[idx] = pte;
ffffffff80003df0: fa843503     	ld	a0, -0x58(s0)
ffffffff80003df4: fc043583     	ld	a1, -0x40(s0)
ffffffff80003df8: fa043603     	ld	a2, -0x60(s0)
ffffffff80003dfc: 060e 	slli	a2, a2, 0x3
ffffffff80003dfe: 95b2 	add	a1, a1, a2
ffffffff80003e00: e188 	sd	a0, 0x0(a1)
; 	}
ffffffff80003e02: a009 	j	0xffffffff80003e04 <vm_init_kernel_direct_map+0xf2>
; 	for (u64 i = 0; i < KERNEL_DIRECT_MAP_SIZE / SIZE_1G; i++) {
ffffffff80003e04: f9843503     	ld	a0, -0x68(s0)
ffffffff80003e08: 0505 	addi	a0, a0, 0x1
ffffffff80003e0a: f8a43c23     	sd	a0, -0x68(s0)
ffffffff80003e0e: b70d 	j	0xffffffff80003d30 <vm_init_kernel_direct_map+0x1e>
; }
ffffffff80003e10: 70a6 	ld	ra, 0x68(sp)
ffffffff80003e12: 7406 	ld	s0, 0x60(sp)
ffffffff80003e14: 6165 	addi	sp, sp, 0x70
ffffffff80003e16: 8082 	ret

ffffffff80003e18 <vm_init_kernel>:
; {
ffffffff80003e18: 7159 	addi	sp, sp, -0x70
ffffffff80003e1a: f486 	sd	ra, 0x68(sp)
ffffffff80003e1c: f0a2 	sd	s0, 0x60(sp)
ffffffff80003e1e: 1880 	addi	s0, sp, 0x70
; 	info("setting up kernel page tables...\n");
ffffffff80003e20: 0004f517     	auipc	a0, 0x4f
ffffffff80003e24: bf250593     	addi	a1, a0, -0x40e
ffffffff80003e28: 450d 	li	a0, 0x3
ffffffff80003e2a: df0ff0ef     	jal	0xffffffff8000341a <printk>
; 	kernel_root_ptb = (struct pgtable *) alloc_get_page();
ffffffff80003e2e: 046010ef     	jal	0xffffffff80004e74 <alloc_get_page>
ffffffff80003e32: 85aa 	mv	a1, a0
ffffffff80003e34: 00004517     	auipc	a0, 0x4
ffffffff80003e38: 23450513     	addi	a0, a0, 0x234
ffffffff80003e3c: e10c 	sd	a1, 0x0(a0)
; 	debug("kernel_root_ptb: 0x%x\n", kernel_root_ptb);
ffffffff80003e3e: 6110 	ld	a2, 0x0(a0)
ffffffff80003e40: 0004f517     	auipc	a0, 0x4f
ffffffff80003e44: 05250593     	addi	a1, a0, 0x52
ffffffff80003e48: 4511 	li	a0, 0x4
ffffffff80003e4a: fca43023     	sd	a0, -0x40(s0)
ffffffff80003e4e: dccff0ef     	jal	0xffffffff8000341a <printk>
ffffffff80003e52: fc043503     	ld	a0, -0x40(s0)
; 	      kmap.text_start, kmap.text_start - kmap.phys_offset,
ffffffff80003e56: 00004597     	auipc	a1, 0x4
ffffffff80003e5a: 1b258593     	addi	a1, a1, 0x1b2
ffffffff80003e5e: fcb43423     	sd	a1, -0x38(s0)
ffffffff80003e62: 7190 	ld	a2, 0x20(a1)
ffffffff80003e64: 6194 	ld	a3, 0x0(a1)
ffffffff80003e66: 40d606b3     	sub	a3, a2, a3
; 	      kmap.text_end - kmap.text_start);
ffffffff80003e6a: 758c 	ld	a1, 0x28(a1)
ffffffff80003e6c: 40c58733     	sub	a4, a1, a2
; 	debug("mapping .text: %p -> %p, size %lu\n",
ffffffff80003e70: 0004f597     	auipc	a1, 0x4f
ffffffff80003e74: 93258593     	addi	a1, a1, -0x6ce
ffffffff80003e78: da2ff0ef     	jal	0xffffffff8000341a <printk>
ffffffff80003e7c: fc843503     	ld	a0, -0x38(s0)
; 	for (size_t addr = kmap.text_start; addr < kmap.text_end; addr += PAGE_SIZE) {
ffffffff80003e80: 7108 	ld	a0, 0x20(a0)
ffffffff80003e82: fea43423     	sd	a0, -0x18(s0)
ffffffff80003e86: a009 	j	0xffffffff80003e88 <vm_init_kernel+0x70>
ffffffff80003e88: fe843503     	ld	a0, -0x18(s0)
ffffffff80003e8c: 00004597     	auipc	a1, 0x4
ffffffff80003e90: 17c58593     	addi	a1, a1, 0x17c
ffffffff80003e94: 758c 	ld	a1, 0x28(a1)
ffffffff80003e96: 02b57763     	bgeu	a0, a1, 0xffffffff80003ec4 <vm_init_kernel+0xac>
ffffffff80003e9a: a009 	j	0xffffffff80003e9c <vm_init_kernel+0x84>
; 		vm_map_page(addr, addr - kmap.phys_offset, PTE_READ | PTE_EXEC);
ffffffff80003e9c: fe843503     	ld	a0, -0x18(s0)
ffffffff80003ea0: 00004597     	auipc	a1, 0x4
ffffffff80003ea4: 16858593     	addi	a1, a1, 0x168
ffffffff80003ea8: 618c 	ld	a1, 0x0(a1)
ffffffff80003eaa: 40b505b3     	sub	a1, a0, a1
ffffffff80003eae: 4629 	li	a2, 0xa
ffffffff80003eb0: 1c0000ef     	jal	0xffffffff80004070 <vm_map_page>
; 	}
ffffffff80003eb4: a009 	j	0xffffffff80003eb6 <vm_init_kernel+0x9e>
; 	for (size_t addr = kmap.text_start; addr < kmap.text_end; addr += PAGE_SIZE) {
ffffffff80003eb6: fe843503     	ld	a0, -0x18(s0)
ffffffff80003eba: 6585 	lui	a1, 0x1
ffffffff80003ebc: 952e 	add	a0, a0, a1
ffffffff80003ebe: fea43423     	sd	a0, -0x18(s0)
ffffffff80003ec2: b7d9 	j	0xffffffff80003e88 <vm_init_kernel+0x70>
; 	      kmap.bss_start, kmap.bss_start - kmap.phys_offset,
ffffffff80003ec4: 00004517     	auipc	a0, 0x4
ffffffff80003ec8: 14450513     	addi	a0, a0, 0x144
ffffffff80003ecc: faa43c23     	sd	a0, -0x48(s0)
ffffffff80003ed0: 7910 	ld	a2, 0x30(a0)
ffffffff80003ed2: 610c 	ld	a1, 0x0(a0)
ffffffff80003ed4: 40b606b3     	sub	a3, a2, a1
; 	      kmap.bss_end - kmap.bss_start);
ffffffff80003ed8: 7d08 	ld	a0, 0x38(a0)
ffffffff80003eda: 40c50733     	sub	a4, a0, a2
; 	debug("mapping .bss: %p -> %p, size %lu\n",
ffffffff80003ede: 0004f517     	auipc	a0, 0x4f
ffffffff80003ee2: fcb50593     	addi	a1, a0, -0x35
ffffffff80003ee6: 4511 	li	a0, 0x4
ffffffff80003ee8: d32ff0ef     	jal	0xffffffff8000341a <printk>
ffffffff80003eec: fb843503     	ld	a0, -0x48(s0)
; 	for (size_t addr = kmap.bss_start; addr < kmap.bss_end; addr += PAGE_SIZE) {
ffffffff80003ef0: 7908 	ld	a0, 0x30(a0)
ffffffff80003ef2: fea43023     	sd	a0, -0x20(s0)
ffffffff80003ef6: a009 	j	0xffffffff80003ef8 <vm_init_kernel+0xe0>
ffffffff80003ef8: fe043503     	ld	a0, -0x20(s0)
ffffffff80003efc: 00004597     	auipc	a1, 0x4
ffffffff80003f00: 10c58593     	addi	a1, a1, 0x10c
ffffffff80003f04: 7d8c 	ld	a1, 0x38(a1)
ffffffff80003f06: 02b57763     	bgeu	a0, a1, 0xffffffff80003f34 <vm_init_kernel+0x11c>
ffffffff80003f0a: a009 	j	0xffffffff80003f0c <vm_init_kernel+0xf4>
; 		vm_map_page(addr, addr - kmap.phys_offset, PTE_READ | PTE_WRITE);
ffffffff80003f0c: fe043503     	ld	a0, -0x20(s0)
ffffffff80003f10: 00004597     	auipc	a1, 0x4
ffffffff80003f14: 0f858593     	addi	a1, a1, 0xf8
ffffffff80003f18: 618c 	ld	a1, 0x0(a1)
ffffffff80003f1a: 40b505b3     	sub	a1, a0, a1
ffffffff80003f1e: 4619 	li	a2, 0x6
ffffffff80003f20: 150000ef     	jal	0xffffffff80004070 <vm_map_page>
; 	}
ffffffff80003f24: a009 	j	0xffffffff80003f26 <vm_init_kernel+0x10e>
; 	for (size_t addr = kmap.bss_start; addr < kmap.bss_end; addr += PAGE_SIZE) {
ffffffff80003f26: fe043503     	ld	a0, -0x20(s0)
ffffffff80003f2a: 6585 	lui	a1, 0x1
ffffffff80003f2c: 952e 	add	a0, a0, a1
ffffffff80003f2e: fea43023     	sd	a0, -0x20(s0)
ffffffff80003f32: b7d9 	j	0xffffffff80003ef8 <vm_init_kernel+0xe0>
; 	      kmap.rodata_start, kmap.rodata_start - kmap.phys_offset,
ffffffff80003f34: 00004517     	auipc	a0, 0x4
ffffffff80003f38: 0d450513     	addi	a0, a0, 0xd4
ffffffff80003f3c: faa43823     	sd	a0, -0x50(s0)
ffffffff80003f40: 6130 	ld	a2, 0x40(a0)
ffffffff80003f42: 610c 	ld	a1, 0x0(a0)
ffffffff80003f44: 40b606b3     	sub	a3, a2, a1
; 	      kmap.rodata_end - kmap.rodata_start);
ffffffff80003f48: 6528 	ld	a0, 0x48(a0)
ffffffff80003f4a: 40c50733     	sub	a4, a0, a2
; 	debug("mapping .rodata: %p -> %p, size %lu\n",
ffffffff80003f4e: 0004e517     	auipc	a0, 0x4e
ffffffff80003f52: 52d50593     	addi	a1, a0, 0x52d
ffffffff80003f56: 4511 	li	a0, 0x4
ffffffff80003f58: cc2ff0ef     	jal	0xffffffff8000341a <printk>
ffffffff80003f5c: fb043503     	ld	a0, -0x50(s0)
; 	for (size_t addr = kmap.rodata_start; addr < kmap.rodata_end; addr += PAGE_SIZE) {
ffffffff80003f60: 6128 	ld	a0, 0x40(a0)
ffffffff80003f62: fca43c23     	sd	a0, -0x28(s0)
ffffffff80003f66: a009 	j	0xffffffff80003f68 <vm_init_kernel+0x150>
ffffffff80003f68: fd843503     	ld	a0, -0x28(s0)
ffffffff80003f6c: 00004597     	auipc	a1, 0x4
ffffffff80003f70: 09c58593     	addi	a1, a1, 0x9c
ffffffff80003f74: 65ac 	ld	a1, 0x48(a1)
ffffffff80003f76: 02b57763     	bgeu	a0, a1, 0xffffffff80003fa4 <vm_init_kernel+0x18c>
ffffffff80003f7a: a009 	j	0xffffffff80003f7c <vm_init_kernel+0x164>
; 		vm_map_page(addr, addr - kmap.phys_offset, PTE_READ);
ffffffff80003f7c: fd843503     	ld	a0, -0x28(s0)
ffffffff80003f80: 00004597     	auipc	a1, 0x4
ffffffff80003f84: 08858593     	addi	a1, a1, 0x88
ffffffff80003f88: 618c 	ld	a1, 0x0(a1)
ffffffff80003f8a: 40b505b3     	sub	a1, a0, a1
ffffffff80003f8e: 4609 	li	a2, 0x2
ffffffff80003f90: 0e0000ef     	jal	0xffffffff80004070 <vm_map_page>
; 	}
ffffffff80003f94: a009 	j	0xffffffff80003f96 <vm_init_kernel+0x17e>
; 	for (size_t addr = kmap.rodata_start; addr < kmap.rodata_end; addr += PAGE_SIZE) {
ffffffff80003f96: fd843503     	ld	a0, -0x28(s0)
ffffffff80003f9a: 6585 	lui	a1, 0x1
ffffffff80003f9c: 952e 	add	a0, a0, a1
ffffffff80003f9e: fca43c23     	sd	a0, -0x28(s0)
ffffffff80003fa2: b7d9 	j	0xffffffff80003f68 <vm_init_kernel+0x150>
; 	      kmap.data_start, kmap.data_start - kmap.phys_offset,
ffffffff80003fa4: 00004517     	auipc	a0, 0x4
ffffffff80003fa8: 06450513     	addi	a0, a0, 0x64
ffffffff80003fac: faa43423     	sd	a0, -0x58(s0)
ffffffff80003fb0: 6930 	ld	a2, 0x50(a0)
ffffffff80003fb2: 610c 	ld	a1, 0x0(a0)
ffffffff80003fb4: 40b606b3     	sub	a3, a2, a1
; 	      kmap.data_end - kmap.data_start);
ffffffff80003fb8: 6d28 	ld	a0, 0x58(a0)
ffffffff80003fba: 40c50733     	sub	a4, a0, a2
; 	debug("mapping .data: %p -> %p, size %lu\n",
ffffffff80003fbe: 0004e517     	auipc	a0, 0x4e
ffffffff80003fc2: 30550593     	addi	a1, a0, 0x305
ffffffff80003fc6: 4511 	li	a0, 0x4
ffffffff80003fc8: c52ff0ef     	jal	0xffffffff8000341a <printk>
ffffffff80003fcc: fa843503     	ld	a0, -0x58(s0)
; 	for (size_t addr = kmap.data_start; addr < kmap.data_end; addr += PAGE_SIZE) {
ffffffff80003fd0: 6928 	ld	a0, 0x50(a0)
ffffffff80003fd2: fca43823     	sd	a0, -0x30(s0)
ffffffff80003fd6: a009 	j	0xffffffff80003fd8 <vm_init_kernel+0x1c0>
ffffffff80003fd8: fd043503     	ld	a0, -0x30(s0)
ffffffff80003fdc: 00004597     	auipc	a1, 0x4
ffffffff80003fe0: 02c58593     	addi	a1, a1, 0x2c
ffffffff80003fe4: 6dac 	ld	a1, 0x58(a1)
ffffffff80003fe6: 02b57763     	bgeu	a0, a1, 0xffffffff80004014 <vm_init_kernel+0x1fc>
ffffffff80003fea: a009 	j	0xffffffff80003fec <vm_init_kernel+0x1d4>
; 		vm_map_page(addr, addr - kmap.phys_offset, PTE_READ | PTE_WRITE);
ffffffff80003fec: fd043503     	ld	a0, -0x30(s0)
ffffffff80003ff0: 00004597     	auipc	a1, 0x4
ffffffff80003ff4: 01858593     	addi	a1, a1, 0x18
ffffffff80003ff8: 618c 	ld	a1, 0x0(a1)
ffffffff80003ffa: 40b505b3     	sub	a1, a0, a1
ffffffff80003ffe: 4619 	li	a2, 0x6
ffffffff80004000: 070000ef     	jal	0xffffffff80004070 <vm_map_page>
; 	}
ffffffff80004004: a009 	j	0xffffffff80004006 <vm_init_kernel+0x1ee>
; 	for (size_t addr = kmap.data_start; addr < kmap.data_end; addr += PAGE_SIZE) {
ffffffff80004006: fd043503     	ld	a0, -0x30(s0)
ffffffff8000400a: 6585 	lui	a1, 0x1
ffffffff8000400c: 952e 	add	a0, a0, a1
ffffffff8000400e: fca43823     	sd	a0, -0x30(s0)
ffffffff80004012: b7d9 	j	0xffffffff80003fd8 <vm_init_kernel+0x1c0>
; 	debug("mapping serial device: %p -> %p, size 4096\n", 0x10000000, 0x10000000);
ffffffff80004014: 0004f517     	auipc	a0, 0x4f
ffffffff80004018: c6950593     	addi	a1, a0, -0x397
ffffffff8000401c: 4511 	li	a0, 0x4
ffffffff8000401e: faa43023     	sd	a0, -0x60(s0)
ffffffff80004022: 100006b7     	lui	a3, 0x10000
ffffffff80004026: f8d43c23     	sd	a3, -0x68(s0)
ffffffff8000402a: 8636 	mv	a2, a3
ffffffff8000402c: beeff0ef     	jal	0xffffffff8000341a <printk>
ffffffff80004030: f9843583     	ld	a1, -0x68(s0)
ffffffff80004034: 4619 	li	a2, 0x6
; 	vm_map_page(0x10000000, 0x10000000, PTE_READ | PTE_WRITE);
ffffffff80004036: 852e 	mv	a0, a1
ffffffff80004038: 038000ef     	jal	0xffffffff80004070 <vm_map_page>
; 	vm_init_kernel_direct_map();
ffffffff8000403c: cd7ff0ef     	jal	0xffffffff80003d12 <vm_init_kernel_direct_map>
ffffffff80004040: fa043503     	ld	a0, -0x60(s0)
; 	debug("mapping the zero page as RWX=0 to catch null-pointer accesses\n");
ffffffff80004044: 0004e597     	auipc	a1, 0x4e
ffffffff80004048: 53f58593     	addi	a1, a1, 0x53f
ffffffff8000404c: bceff0ef     	jal	0xffffffff8000341a <printk>
ffffffff80004050: 4601 	li	a2, 0x0
; 	vm_map_page(0x0, 0x0, 0);
ffffffff80004052: 8532 	mv	a0, a2
ffffffff80004054: 85b2 	mv	a1, a2
ffffffff80004056: 01a000ef     	jal	0xffffffff80004070 <vm_map_page>
; 	info("kernel page tables ready!\n");
ffffffff8000405a: 0004e517     	auipc	a0, 0x4e
ffffffff8000405e: 34950593     	addi	a1, a0, 0x349
ffffffff80004062: 450d 	li	a0, 0x3
ffffffff80004064: bb6ff0ef     	jal	0xffffffff8000341a <printk>
; }
ffffffff80004068: 70a6 	ld	ra, 0x68(sp)
ffffffff8000406a: 7406 	ld	s0, 0x60(sp)
ffffffff8000406c: 6165 	addi	sp, sp, 0x70
ffffffff8000406e: 8082 	ret

ffffffff80004070 <vm_map_page>:
; {
ffffffff80004070: 7115 	addi	sp, sp, -0xe0
ffffffff80004072: ed86 	sd	ra, 0xd8(sp)
ffffffff80004074: e9a2 	sd	s0, 0xd0(sp)
ffffffff80004076: 1180 	addi	s0, sp, 0xe0
ffffffff80004078: f6a43823     	sd	a0, -0x90(s0)
ffffffff8000407c: f6b43423     	sd	a1, -0x98(s0)
ffffffff80004080: f6c43023     	sd	a2, -0xa0(s0)
; 	struct pgtable *ptb = kernel_root_ptb;
ffffffff80004084: 00004517     	auipc	a0, 0x4
ffffffff80004088: fe450513     	addi	a0, a0, -0x1c
ffffffff8000408c: 6108 	ld	a0, 0x0(a0)
ffffffff8000408e: f4a43c23     	sd	a0, -0xa8(s0)
ffffffff80004092: 4509 	li	a0, 0x2
; 	u8 level = PTB_LEVELS - 1;
ffffffff80004094: f2a40fa3     	sb	a0, -0xc1(s0)
; 	trace("vm_map_page: %p -> %p, flags: %#x\n", va, pa, flags);
ffffffff80004098: f7043603     	ld	a2, -0x90(s0)
ffffffff8000409c: f6843683     	ld	a3, -0x98(s0)
ffffffff800040a0: f6043703     	ld	a4, -0xa0(s0)
ffffffff800040a4: 0004e517     	auipc	a0, 0x4e
ffffffff800040a8: 29850593     	addi	a1, a0, 0x298
ffffffff800040ac: 4515 	li	a0, 0x5
ffffffff800040ae: b6cff0ef     	jal	0xffffffff8000341a <printk>
; 	if (!IS_ALIGNED(va) || !IS_ALIGNED(pa)) {
ffffffff800040b2: f7045503     	lhu	a0, -0x90(s0)
ffffffff800040b6: 1552 	slli	a0, a0, 0x34
ffffffff800040b8: e519 	bnez	a0, 0xffffffff800040c6 <vm_map_page+0x56>
ffffffff800040ba: a009 	j	0xffffffff800040bc <vm_map_page+0x4c>
ffffffff800040bc: f6845503     	lhu	a0, -0x98(s0)
ffffffff800040c0: 1552 	slli	a0, a0, 0x34
ffffffff800040c2: c92d 	beqz	a0, 0xffffffff80004134 <vm_map_page+0xc4>
ffffffff800040c4: a009 	j	0xffffffff800040c6 <vm_map_page+0x56>
; 		critical("vm_map_page: attempted to map misaligned address ([%p -> %p])!\n", va, pa);
ffffffff800040c6: f7043603     	ld	a2, -0x90(s0)
ffffffff800040ca: f6843683     	ld	a3, -0x98(s0)
ffffffff800040ce: 0004f517     	auipc	a0, 0x4f
ffffffff800040d2: c1750593     	addi	a1, a0, -0x3e9
ffffffff800040d6: 4501 	li	a0, 0x0
ffffffff800040d8: b42ff0ef     	jal	0xffffffff8000341a <printk>
; 		BUG();
ffffffff800040dc: a009 	j	0xffffffff800040de <vm_map_page+0x6e>
ffffffff800040de: 485000ef     	jal	0xffffffff80004d62 <bug_get_behavior>
ffffffff800040e2: e115 	bnez	a0, 0xffffffff80004106 <vm_map_page+0x96>
ffffffff800040e4: a009 	j	0xffffffff800040e6 <vm_map_page+0x76>
ffffffff800040e6: 0004f517     	auipc	a0, 0x4f
ffffffff800040ea: e5650513     	addi	a0, a0, -0x1aa
ffffffff800040ee: 0004f597     	auipc	a1, 0x4f
ffffffff800040f2: cd858593     	addi	a1, a1, -0x328
ffffffff800040f6: 0004f617     	auipc	a2, 0x4f
ffffffff800040fa: b6860613     	addi	a2, a2, -0x498
ffffffff800040fe: 0a000693     	li	a3, 0xa0
ffffffff80004102: 3e1000ef     	jal	0xffffffff80004ce2 <panic>
ffffffff80004106: 0004f517     	auipc	a0, 0x4f
ffffffff8000410a: e3650593     	addi	a1, a0, -0x1ca
ffffffff8000410e: 0004f517     	auipc	a0, 0x4f
ffffffff80004112: cb850613     	addi	a2, a0, -0x348
ffffffff80004116: 0004f517     	auipc	a0, 0x4f
ffffffff8000411a: b4850693     	addi	a3, a0, -0x4b8
ffffffff8000411e: 4501 	li	a0, 0x0
ffffffff80004120: 0a000713     	li	a4, 0xa0
ffffffff80004124: af6ff0ef     	jal	0xffffffff8000341a <printk>
ffffffff80004128: a009 	j	0xffffffff8000412a <vm_map_page+0xba>
ffffffff8000412a: a009 	j	0xffffffff8000412c <vm_map_page+0xbc>
ffffffff8000412c: 557d 	li	a0, -0x1
; 		return -1;
ffffffff8000412e: f6a42e23     	sw	a0, -0x84(s0)
ffffffff80004132: acc1 	j	0xffffffff80004402 <vm_map_page+0x392>
; 	if (va > 0x3fffffffff && va < 0xffffffc000000000) {
ffffffff80004134: f7043503     	ld	a0, -0x90(s0)
ffffffff80004138: 9119 	srli	a0, a0, 0x26
ffffffff8000413a: cd2d 	beqz	a0, 0xffffffff800041b4 <vm_map_page+0x144>
ffffffff8000413c: a009 	j	0xffffffff8000413e <vm_map_page+0xce>
ffffffff8000413e: f7043583     	ld	a1, -0x90(s0)
ffffffff80004142: 557d 	li	a0, -0x1
ffffffff80004144: 151a 	slli	a0, a0, 0x26
ffffffff80004146: 157d 	addi	a0, a0, -0x1
ffffffff80004148: 06b56663     	bltu	a0, a1, 0xffffffff800041b4 <vm_map_page+0x144>
ffffffff8000414c: a009 	j	0xffffffff8000414e <vm_map_page+0xde>
; 		critical("vm_map_page: attempted to map non-canonical virtual address %p (bits[63:38] aren't all equal)\n");
ffffffff8000414e: 0004f517     	auipc	a0, 0x4f
ffffffff80004152: bd750593     	addi	a1, a0, -0x429
ffffffff80004156: 4501 	li	a0, 0x0
ffffffff80004158: ac2ff0ef     	jal	0xffffffff8000341a <printk>
; 		BUG();
ffffffff8000415c: a009 	j	0xffffffff8000415e <vm_map_page+0xee>
ffffffff8000415e: 405000ef     	jal	0xffffffff80004d62 <bug_get_behavior>
ffffffff80004162: e115 	bnez	a0, 0xffffffff80004186 <vm_map_page+0x116>
ffffffff80004164: a009 	j	0xffffffff80004166 <vm_map_page+0xf6>
ffffffff80004166: 0004f517     	auipc	a0, 0x4f
ffffffff8000416a: dd650513     	addi	a0, a0, -0x22a
ffffffff8000416e: 0004f597     	auipc	a1, 0x4f
ffffffff80004172: c5858593     	addi	a1, a1, -0x3a8
ffffffff80004176: 0004f617     	auipc	a2, 0x4f
ffffffff8000417a: ae860613     	addi	a2, a2, -0x518
ffffffff8000417e: 0aa00693     	li	a3, 0xaa
ffffffff80004182: 361000ef     	jal	0xffffffff80004ce2 <panic>
ffffffff80004186: 0004f517     	auipc	a0, 0x4f
ffffffff8000418a: db650593     	addi	a1, a0, -0x24a
ffffffff8000418e: 0004f517     	auipc	a0, 0x4f
ffffffff80004192: c3850613     	addi	a2, a0, -0x3c8
ffffffff80004196: 0004f517     	auipc	a0, 0x4f
ffffffff8000419a: ac850693     	addi	a3, a0, -0x538
ffffffff8000419e: 4501 	li	a0, 0x0
ffffffff800041a0: 0aa00713     	li	a4, 0xaa
ffffffff800041a4: a76ff0ef     	jal	0xffffffff8000341a <printk>
ffffffff800041a8: a009 	j	0xffffffff800041aa <vm_map_page+0x13a>
ffffffff800041aa: a009 	j	0xffffffff800041ac <vm_map_page+0x13c>
ffffffff800041ac: 557d 	li	a0, -0x1
; 		return -1;
ffffffff800041ae: f6a42e23     	sw	a0, -0x84(s0)
ffffffff800041b2: ac81 	j	0xffffffff80004402 <vm_map_page+0x392>
; 	do {
ffffffff800041b4: a009 	j	0xffffffff800041b6 <vm_map_page+0x146>
; 		ptep = ptb_get_ptep(ptb, va_get_index(va, level));
ffffffff800041b6: f5843503     	ld	a0, -0xa8(s0)
ffffffff800041ba: f2a43423     	sd	a0, -0xd8(s0)
ffffffff800041be: f7043583     	ld	a1, -0x90(s0)
ffffffff800041c2: f3f44503     	lbu	a0, -0xc1(s0)
ffffffff800041c6: f8b43423     	sd	a1, -0x78(s0)
ffffffff800041ca: f8a43023     	sd	a0, -0x80(s0)
; 	switch (level) {
ffffffff800041ce: f8043503     	ld	a0, -0x80(s0)
ffffffff800041d2: f2a43823     	sd	a0, -0xd0(s0)
ffffffff800041d6: cd05 	beqz	a0, 0xffffffff8000420e <vm_map_page+0x19e>
ffffffff800041d8: a009 	j	0xffffffff800041da <vm_map_page+0x16a>
ffffffff800041da: f3043503     	ld	a0, -0xd0(s0)
ffffffff800041de: 4585 	li	a1, 0x1
; 	switch (level) {
ffffffff800041e0: 02b50063     	beq	a0, a1, 0xffffffff80004200 <vm_map_page+0x190>
ffffffff800041e4: a009 	j	0xffffffff800041e6 <vm_map_page+0x176>
ffffffff800041e6: f3043503     	ld	a0, -0xd0(s0)
ffffffff800041ea: 4589 	li	a1, 0x2
; 	switch (level) {
ffffffff800041ec: 02b51863     	bne	a0, a1, 0xffffffff8000421c <vm_map_page+0x1ac>
ffffffff800041f0: a009 	j	0xffffffff800041f2 <vm_map_page+0x182>
; 			return (va & VPN_MASK_L2) >> (VPN_SHIFT_L2);
ffffffff800041f2: f8843503     	ld	a0, -0x78(s0)
ffffffff800041f6: 0566 	slli	a0, a0, 0x19
ffffffff800041f8: 915d 	srli	a0, a0, 0x37
ffffffff800041fa: f8a43823     	sd	a0, -0x70(s0)
ffffffff800041fe: a03d 	j	0xffffffff8000422c <vm_map_page+0x1bc>
; 			return (va & VPN_MASK_L1) >> (VPN_SHIFT_L1);
ffffffff80004200: f8843503     	ld	a0, -0x78(s0)
ffffffff80004204: 150a 	slli	a0, a0, 0x22
ffffffff80004206: 915d 	srli	a0, a0, 0x37
ffffffff80004208: f8a43823     	sd	a0, -0x70(s0)
ffffffff8000420c: a005 	j	0xffffffff8000422c <vm_map_page+0x1bc>
; 			return (va & VPN_MASK_L0) >> (VPN_SHIFT_L0);
ffffffff8000420e: f8843503     	ld	a0, -0x78(s0)
ffffffff80004212: 152e 	slli	a0, a0, 0x2b
ffffffff80004214: 915d 	srli	a0, a0, 0x37
ffffffff80004216: f8a43823     	sd	a0, -0x70(s0)
ffffffff8000421a: a809 	j	0xffffffff8000422c <vm_map_page+0x1bc>
; 			panic("ERROR: va_get_index: page table level %d doesn't exist!\n", level);
ffffffff8000421c: f8043583     	ld	a1, -0x80(s0)
ffffffff80004220: 0004e517     	auipc	a0, 0x4e
ffffffff80004224: 2fc50513     	addi	a0, a0, 0x2fc
ffffffff80004228: 2bb000ef     	jal	0xffffffff80004ce2 <panic>
ffffffff8000422c: f2843583     	ld	a1, -0xd8(s0)
; }
ffffffff80004230: f9043503     	ld	a0, -0x70(s0)
ffffffff80004234: fcb43023     	sd	a1, -0x40(s0)
ffffffff80004238: faa43c23     	sd	a0, -0x48(s0)
; 	return &ptb->entries[index];
ffffffff8000423c: fc043503     	ld	a0, -0x40(s0)
ffffffff80004240: fb843583     	ld	a1, -0x48(s0)
ffffffff80004244: 058e 	slli	a1, a1, 0x3
ffffffff80004246: 952e 	add	a0, a0, a1
; 		ptep = ptb_get_ptep(ptb, va_get_index(va, level));
ffffffff80004248: f4a43423     	sd	a0, -0xb8(s0)
; 		pte = *ptep;
ffffffff8000424c: f4843503     	ld	a0, -0xb8(s0)
ffffffff80004250: 6108 	ld	a0, 0x0(a0)
ffffffff80004252: f4a43023     	sd	a0, -0xc0(s0)
; 		trace("vm_map_page: ptb=%p, level=%d, pte=%p\n", PPN_DOWN(ptep), level, pte);
ffffffff80004256: f4843503     	ld	a0, -0xb8(s0)
ffffffff8000425a: 00c55613     	srli	a2, a0, 0xc
ffffffff8000425e: f3f44683     	lbu	a3, -0xc1(s0)
ffffffff80004262: f4043703     	ld	a4, -0xc0(s0)
ffffffff80004266: 0004e517     	auipc	a0, 0x4e
ffffffff8000426a: 5b150593     	addi	a1, a0, 0x5b1
ffffffff8000426e: 4515 	li	a0, 0x5
ffffffff80004270: 9aaff0ef     	jal	0xffffffff8000341a <printk>
; 		if (level == 0) {
ffffffff80004274: f3f44503     	lbu	a0, -0xc1(s0)
ffffffff80004278: ed61 	bnez	a0, 0xffffffff80004350 <vm_map_page+0x2e0>
ffffffff8000427a: a009 	j	0xffffffff8000427c <vm_map_page+0x20c>
; 			if (pte_valid(pte)) {
ffffffff8000427c: f4043503     	ld	a0, -0xc0(s0)
ffffffff80004280: fca43823     	sd	a0, -0x30(s0)
; 	return pte & PTE_VALID;
ffffffff80004284: fd044503     	lbu	a0, -0x30(s0)
ffffffff80004288: 8905 	andi	a0, a0, 0x1
; 			if (pte_valid(pte)) {
ffffffff8000428a: c92d 	beqz	a0, 0xffffffff800042fc <vm_map_page+0x28c>
ffffffff8000428c: a009 	j	0xffffffff8000428e <vm_map_page+0x21e>
; 				critical("vm_map_page: attempted to remap VA 0x%x, PTE: 0x%x\n", va, pte);
ffffffff8000428e: f7043603     	ld	a2, -0x90(s0)
ffffffff80004292: f4043683     	ld	a3, -0xc0(s0)
ffffffff80004296: 0004f517     	auipc	a0, 0x4f
ffffffff8000429a: b3c50593     	addi	a1, a0, -0x4c4
ffffffff8000429e: 4501 	li	a0, 0x0
ffffffff800042a0: 97aff0ef     	jal	0xffffffff8000341a <printk>
; 				BUG();
ffffffff800042a4: a009 	j	0xffffffff800042a6 <vm_map_page+0x236>
ffffffff800042a6: 2bd000ef     	jal	0xffffffff80004d62 <bug_get_behavior>
ffffffff800042aa: e115 	bnez	a0, 0xffffffff800042ce <vm_map_page+0x25e>
ffffffff800042ac: a009 	j	0xffffffff800042ae <vm_map_page+0x23e>
ffffffff800042ae: 0004f517     	auipc	a0, 0x4f
ffffffff800042b2: c8e50513     	addi	a0, a0, -0x372
ffffffff800042b6: 0004f597     	auipc	a1, 0x4f
ffffffff800042ba: b1058593     	addi	a1, a1, -0x4f0
ffffffff800042be: 0004f617     	auipc	a2, 0x4f
ffffffff800042c2: 9a060613     	addi	a2, a2, -0x660
ffffffff800042c6: 0b800693     	li	a3, 0xb8
ffffffff800042ca: 219000ef     	jal	0xffffffff80004ce2 <panic>
ffffffff800042ce: 0004f517     	auipc	a0, 0x4f
ffffffff800042d2: c6e50593     	addi	a1, a0, -0x392
ffffffff800042d6: 0004f517     	auipc	a0, 0x4f
ffffffff800042da: af050613     	addi	a2, a0, -0x510
ffffffff800042de: 0004f517     	auipc	a0, 0x4f
ffffffff800042e2: 98050693     	addi	a3, a0, -0x680
ffffffff800042e6: 4501 	li	a0, 0x0
ffffffff800042e8: 0b800713     	li	a4, 0xb8
ffffffff800042ec: 92eff0ef     	jal	0xffffffff8000341a <printk>
ffffffff800042f0: a009 	j	0xffffffff800042f2 <vm_map_page+0x282>
ffffffff800042f2: a009 	j	0xffffffff800042f4 <vm_map_page+0x284>
ffffffff800042f4: 557d 	li	a0, -0x1
; 				return -1;
ffffffff800042f6: f6a42e23     	sw	a0, -0x84(s0)
ffffffff800042fa: a221 	j	0xffffffff80004402 <vm_map_page+0x392>
; 			pte = pte_from_ppn(phys_to_ppn(pa));
ffffffff800042fc: f6843503     	ld	a0, -0x98(s0)
ffffffff80004300: faa43823     	sd	a0, -0x50(s0)
; 	return (ppn_t) phys >> PAGE_SHIFT;
ffffffff80004304: fb043503     	ld	a0, -0x50(s0)
ffffffff80004308: 8131 	srli	a0, a0, 0xc
ffffffff8000430a: faa43023     	sd	a0, -0x60(s0)
; 	return (pte_t) ppn << PTE_SHIFT;
ffffffff8000430e: fa043503     	ld	a0, -0x60(s0)
ffffffff80004312: 052a 	slli	a0, a0, 0xa
; 			pte = pte_from_ppn(phys_to_ppn(pa));
ffffffff80004314: f4a43023     	sd	a0, -0xc0(s0)
; 			pte |= flags;
ffffffff80004318: f6043583     	ld	a1, -0xa0(s0)
ffffffff8000431c: f4043503     	ld	a0, -0xc0(s0)
ffffffff80004320: 8d4d 	or	a0, a0, a1
ffffffff80004322: f4a43023     	sd	a0, -0xc0(s0)
; 			pte |= PTE_VALID;
ffffffff80004326: f4043503     	ld	a0, -0xc0(s0)
ffffffff8000432a: 00156513     	ori	a0, a0, 0x1
ffffffff8000432e: f4a43023     	sd	a0, -0xc0(s0)
; 			trace("vm_map_page: mapping page, PTE=0x%x\n", pte);
ffffffff80004332: f4043603     	ld	a2, -0xc0(s0)
ffffffff80004336: 0004e517     	auipc	a0, 0x4e
ffffffff8000433a: 37150593     	addi	a1, a0, 0x371
ffffffff8000433e: 4515 	li	a0, 0x5
ffffffff80004340: 8daff0ef     	jal	0xffffffff8000341a <printk>
; 			*ptep = pte;
ffffffff80004344: f4043503     	ld	a0, -0xc0(s0)
ffffffff80004348: f4843583     	ld	a1, -0xb8(s0)
ffffffff8000434c: e188 	sd	a0, 0x0(a1)
; 			break;
ffffffff8000434e: a075 	j	0xffffffff800043fa <vm_map_page+0x38a>
; 		if (!pte_valid(pte)) {
ffffffff80004350: f4043503     	ld	a0, -0xc0(s0)
ffffffff80004354: fca43423     	sd	a0, -0x38(s0)
; 	return pte & PTE_VALID;
ffffffff80004358: fc844503     	lbu	a0, -0x38(s0)
ffffffff8000435c: 8905 	andi	a0, a0, 0x1
; 		if (!pte_valid(pte)) {
ffffffff8000435e: e125 	bnez	a0, 0xffffffff800043be <vm_map_page+0x34e>
ffffffff80004360: a009 	j	0xffffffff80004362 <vm_map_page+0x2f2>
; 			next_ptb_addr = alloc_zero_page();
ffffffff80004362: 46d000ef     	jal	0xffffffff80004fce <alloc_zero_page>
ffffffff80004366: f4a43823     	sd	a0, -0xb0(s0)
; 			pte = pte_from_ppn(phys_to_ppn(next_ptb_addr));
ffffffff8000436a: f5043503     	ld	a0, -0xb0(s0)
ffffffff8000436e: faa43423     	sd	a0, -0x58(s0)
; 	return (ppn_t) phys >> PAGE_SHIFT;
ffffffff80004372: fa843503     	ld	a0, -0x58(s0)
ffffffff80004376: 8131 	srli	a0, a0, 0xc
ffffffff80004378: f8a43c23     	sd	a0, -0x68(s0)
; 	return (pte_t) ppn << PTE_SHIFT;
ffffffff8000437c: f9843503     	ld	a0, -0x68(s0)
ffffffff80004380: 052a 	slli	a0, a0, 0xa
; 			pte = pte_from_ppn(phys_to_ppn(next_ptb_addr));
ffffffff80004382: f4a43023     	sd	a0, -0xc0(s0)
; 			pte &= ~PTE_LEAF;
ffffffff80004386: f4043503     	ld	a0, -0xc0(s0)
ffffffff8000438a: 9945 	andi	a0, a0, -0xf
ffffffff8000438c: f4a43023     	sd	a0, -0xc0(s0)
; 			pte |= PTE_VALID;
ffffffff80004390: f4043503     	ld	a0, -0xc0(s0)
ffffffff80004394: 00156513     	ori	a0, a0, 0x1
ffffffff80004398: f4a43023     	sd	a0, -0xc0(s0)
; 			trace("vm_map_page: allocated PTB at %p, PTE=%p\n", next_ptb_addr, pte);
ffffffff8000439c: f5043603     	ld	a2, -0xb0(s0)
ffffffff800043a0: f4043683     	ld	a3, -0xc0(s0)
ffffffff800043a4: 0004e517     	auipc	a0, 0x4e
ffffffff800043a8: 50550593     	addi	a1, a0, 0x505
ffffffff800043ac: 4515 	li	a0, 0x5
ffffffff800043ae: 86cff0ef     	jal	0xffffffff8000341a <printk>
; 			*ptep = pte;
ffffffff800043b2: f4043503     	ld	a0, -0xc0(s0)
ffffffff800043b6: f4843583     	ld	a1, -0xb8(s0)
ffffffff800043ba: e188 	sd	a0, 0x0(a1)
; 		}
ffffffff800043bc: a009 	j	0xffffffff800043be <vm_map_page+0x34e>
; 		ptb = pte_next_ptb(pte);
ffffffff800043be: f4043503     	ld	a0, -0xc0(s0)
ffffffff800043c2: fca43c23     	sd	a0, -0x28(s0)
; 	return (struct pgtable *) ppn_to_phys(pte_get_ppn(pte));
ffffffff800043c6: fd843503     	ld	a0, -0x28(s0)
ffffffff800043ca: fea43023     	sd	a0, -0x20(s0)
; 	return (ppn_t) (pte & PTE_PPN_MASK) >> PTE_SHIFT;
ffffffff800043ce: fe043503     	ld	a0, -0x20(s0)
ffffffff800043d2: 052a 	slli	a0, a0, 0xa
ffffffff800043d4: 8151 	srli	a0, a0, 0x14
ffffffff800043d6: fea43423     	sd	a0, -0x18(s0)
; 	return (phys_addr_t) ppn << PAGE_SHIFT;
ffffffff800043da: fe843503     	ld	a0, -0x18(s0)
ffffffff800043de: 0532 	slli	a0, a0, 0xc
; 		ptb = pte_next_ptb(pte);
ffffffff800043e0: f4a43c23     	sd	a0, -0xa8(s0)
; 	} while(level-- > 0);
ffffffff800043e4: a009 	j	0xffffffff800043e6 <vm_map_page+0x376>
ffffffff800043e6: f3f44583     	lbu	a1, -0xc1(s0)
ffffffff800043ea: fff5851b     	addiw	a0, a1, -0x1
ffffffff800043ee: f2a40fa3     	sb	a0, -0xc1(s0)
ffffffff800043f2: 4501 	li	a0, 0x0
ffffffff800043f4: dcb541e3     	blt	a0, a1, 0xffffffff800041b6 <vm_map_page+0x146>
ffffffff800043f8: a009 	j	0xffffffff800043fa <vm_map_page+0x38a>
ffffffff800043fa: 4501 	li	a0, 0x0
; 	return 0;
ffffffff800043fc: f6a42e23     	sw	a0, -0x84(s0)
ffffffff80004400: a009 	j	0xffffffff80004402 <vm_map_page+0x392>
; }
ffffffff80004402: f7c42503     	lw	a0, -0x84(s0)
ffffffff80004406: 60ee 	ld	ra, 0xd8(sp)
ffffffff80004408: 644e 	ld	s0, 0xd0(sp)
ffffffff8000440a: 612d 	addi	sp, sp, 0xe0
ffffffff8000440c: 8082 	ret

ffffffff8000440e <mm_init>:
; {
ffffffff8000440e: 7139 	addi	sp, sp, -0x40
ffffffff80004410: fc06 	sd	ra, 0x38(sp)
ffffffff80004412: f822 	sd	s0, 0x30(sp)
ffffffff80004414: 0080 	addi	s0, sp, 0x40
; 	mm_init_kmap();
ffffffff80004416: f48ff0ef     	jal	0xffffffff80003b5e <mm_init_kmap>
; 	info("initializing early physmem allocator\n");
ffffffff8000441a: 0004f517     	auipc	a0, 0x4f
ffffffff8000441e: ab150593     	addi	a1, a0, -0x54f
ffffffff80004422: 450d 	li	a0, 0x3
ffffffff80004424: fca43423     	sd	a0, -0x38(s0)
ffffffff80004428: ff3fe0ef     	jal	0xffffffff8000341a <printk>
; 	alloc_init(kmap.kernel_end - kmap.phys_offset);
ffffffff8000442c: 00004517     	auipc	a0, 0x4
ffffffff80004430: bdc50593     	addi	a1, a0, -0x424
ffffffff80004434: 6988 	ld	a0, 0x10(a1)
ffffffff80004436: 618c 	ld	a1, 0x0(a1)
ffffffff80004438: 8d0d 	sub	a0, a0, a1
ffffffff8000443a: 143000ef     	jal	0xffffffff80004d7c <alloc_init>
; 	vm_init_kernel();
ffffffff8000443e: 9dbff0ef     	jal	0xffffffff80003e18 <vm_init_kernel>
ffffffff80004442: fc843503     	ld	a0, -0x38(s0)
; 	kernel_root_ptb = (struct pgtable*)pa_to_va((phys_addr_t)kernel_root_ptb);
ffffffff80004446: 00004597     	auipc	a1, 0x4
ffffffff8000444a: c2258613     	addi	a2, a1, -0x3de
ffffffff8000444e: 620c 	ld	a1, 0x0(a2)
ffffffff80004450: feb43423     	sd	a1, -0x18(s0)
; 	return pa + KERNEL_DIRECT_MAP_START;
ffffffff80004454: fe843583     	ld	a1, -0x18(s0)
ffffffff80004458: 56fd 	li	a3, -0x1
ffffffff8000445a: 169a 	slli	a3, a3, 0x26
ffffffff8000445c: fcd43823     	sd	a3, -0x30(s0)
ffffffff80004460: 95b6 	add	a1, a1, a3
; 	kernel_root_ptb = (struct pgtable*)pa_to_va((phys_addr_t)kernel_root_ptb);
ffffffff80004462: e20c 	sd	a1, 0x0(a2)
; 	info("initializing direct-map kernel physmem allocator\n");
ffffffff80004464: 0004f597     	auipc	a1, 0x4f
ffffffff80004468: 84558593     	addi	a1, a1, -0x7bb
ffffffff8000446c: faffe0ef     	jal	0xffffffff8000341a <printk>
; 	freemem = alloc_get_page();
ffffffff80004470: 205000ef     	jal	0xffffffff80004e74 <alloc_get_page>
ffffffff80004474: fd043583     	ld	a1, -0x30(s0)
ffffffff80004478: fca43c23     	sd	a0, -0x28(s0)
; 	alloc_init(pa_to_va(freemem));
ffffffff8000447c: fd843503     	ld	a0, -0x28(s0)
ffffffff80004480: fea43023     	sd	a0, -0x20(s0)
; 	return pa + KERNEL_DIRECT_MAP_START;
ffffffff80004484: fe043503     	ld	a0, -0x20(s0)
ffffffff80004488: 952e 	add	a0, a0, a1
; 	alloc_init(pa_to_va(freemem));
ffffffff8000448a: 0f3000ef     	jal	0xffffffff80004d7c <alloc_init>
; }
ffffffff8000448e: 70e2 	ld	ra, 0x38(sp)
ffffffff80004490: 7442 	ld	s0, 0x30(sp)
ffffffff80004492: 6121 	addi	sp, sp, 0x40
ffffffff80004494: 8082 	ret

ffffffff80004496 <dump_ptbs>:
; {
ffffffff80004496: 7141 	addi	sp, sp, -0x1f0
ffffffff80004498: f786 	sd	ra, 0x1e8(sp)
ffffffff8000449a: f3a2 	sd	s0, 0x1e0(sp)
ffffffff8000449c: 1b80 	addi	s0, sp, 0x1f0
ffffffff8000449e: 80010113     	addi	sp, sp, -0x800
ffffffff800044a2: 94010113     	addi	sp, sp, -0x6c0
ffffffff800044a6: 6505 	lui	a0, 0x1
ffffffff800044a8: 0a050513     	addi	a0, a0, 0xa0
ffffffff800044ac: 40a406b3     	sub	a3, s0, a0
ffffffff800044b0: 6505 	lui	a0, 0x1
ffffffff800044b2: 40a40533     	sub	a0, s0, a0
ffffffff800044b6: f4d53c23     	sd	a3, -0xa8(a0)
ffffffff800044ba: 4501 	li	a0, 0x0
; 	u64 top = 0;
ffffffff800044bc: f288 	sd	a0, 0x20(a3)
; 	size_t total_ptbs = 0;
ffffffff800044be: ee88 	sd	a0, 0x18(a3)
; 	allocated_ptbs[top++] = kernel_root_ptb;
ffffffff800044c0: 00004517     	auipc	a0, 0x4
ffffffff800044c4: ba850513     	addi	a0, a0, -0x458
ffffffff800044c8: 6108 	ld	a0, 0x0(a0)
ffffffff800044ca: 728c 	ld	a1, 0x20(a3)
ffffffff800044cc: 00158613     	addi	a2, a1, 0x1
ffffffff800044d0: f290 	sd	a2, 0x20(a3)
ffffffff800044d2: 00359613     	slli	a2, a1, 0x3
ffffffff800044d6: 6585 	lui	a1, 0x1
ffffffff800044d8: 07858593     	addi	a1, a1, 0x78
ffffffff800044dc: 40b405b3     	sub	a1, s0, a1
ffffffff800044e0: 95b2 	add	a1, a1, a2
ffffffff800044e2: e188 	sd	a0, 0x0(a1)
; 	while (top > 0) {
ffffffff800044e4: a009 	j	0xffffffff800044e6 <dump_ptbs+0x50>
ffffffff800044e6: 6505 	lui	a0, 0x1
ffffffff800044e8: 40a40533     	sub	a0, s0, a0
ffffffff800044ec: f5853503     	ld	a0, -0xa8(a0)
; 	while (top > 0) {
ffffffff800044f0: 7108 	ld	a0, 0x20(a0)
ffffffff800044f2: 18050963     	beqz	a0, 0xffffffff80004684 <dump_ptbs+0x1ee>
ffffffff800044f6: a009 	j	0xffffffff800044f8 <dump_ptbs+0x62>
ffffffff800044f8: 6505 	lui	a0, 0x1
ffffffff800044fa: 40a40533     	sub	a0, s0, a0
ffffffff800044fe: f5853583     	ld	a1, -0xa8(a0)
; 		total_ptbs++;
ffffffff80004502: 6d88 	ld	a0, 0x18(a1)
ffffffff80004504: 0505 	addi	a0, a0, 0x1
ffffffff80004506: ed88 	sd	a0, 0x18(a1)
; 		ptbp = allocated_ptbs[--top];
ffffffff80004508: 7190 	ld	a2, 0x20(a1)
ffffffff8000450a: 00361513     	slli	a0, a2, 0x3
ffffffff8000450e: 167d 	addi	a2, a2, -0x1
ffffffff80004510: f190 	sd	a2, 0x20(a1)
ffffffff80004512: 6605 	lui	a2, 0x1
ffffffff80004514: 07860613     	addi	a2, a2, 0x78
ffffffff80004518: 40c40633     	sub	a2, s0, a2
ffffffff8000451c: 9532 	add	a0, a0, a2
ffffffff8000451e: ff853503     	ld	a0, -0x8(a0)
ffffffff80004522: e588 	sd	a0, 0x8(a1)
ffffffff80004524: 4501 	li	a0, 0x0
; 		for (size_t i = 0; i < PTB_ENTRY_COUNT; i++) {
ffffffff80004526: e188 	sd	a0, 0x0(a1)
ffffffff80004528: a009 	j	0xffffffff8000452a <dump_ptbs+0x94>
ffffffff8000452a: 6505 	lui	a0, 0x1
ffffffff8000452c: 40a40533     	sub	a0, s0, a0
ffffffff80004530: f5853503     	ld	a0, -0xa8(a0)
; 		for (size_t i = 0; i < PTB_ENTRY_COUNT; i++) {
ffffffff80004534: 610c 	ld	a1, 0x0(a0)
ffffffff80004536: 1ff00513     	li	a0, 0x1ff
ffffffff8000453a: 14b56463     	bltu	a0, a1, 0xffffffff80004682 <dump_ptbs+0x1ec>
ffffffff8000453e: a009 	j	0xffffffff80004540 <dump_ptbs+0xaa>
ffffffff80004540: 6505 	lui	a0, 0x1
ffffffff80004542: 40a40533     	sub	a0, s0, a0
ffffffff80004546: f5853503     	ld	a0, -0xa8(a0)
; 			if (!ptbp)
ffffffff8000454a: 6508 	ld	a0, 0x8(a0)
ffffffff8000454c: e119 	bnez	a0, 0xffffffff80004552 <dump_ptbs+0xbc>
ffffffff8000454e: a009 	j	0xffffffff80004550 <dump_ptbs+0xba>
; 				continue;
ffffffff80004550: a205 	j	0xffffffff80004670 <dump_ptbs+0x1da>
ffffffff80004552: 6505 	lui	a0, 0x1
ffffffff80004554: 40a40533     	sub	a0, s0, a0
ffffffff80004558: f5853503     	ld	a0, -0xa8(a0)
; 			pte = *ptb_get_ptep(ptbp, i);
ffffffff8000455c: 6510 	ld	a2, 0x8(a0)
ffffffff8000455e: 610c 	ld	a1, 0x0(a0)
ffffffff80004560: f8c43823     	sd	a2, -0x70(s0)
ffffffff80004564: f8b43423     	sd	a1, -0x78(s0)
; 	return &ptb->entries[index];
ffffffff80004568: f9043583     	ld	a1, -0x70(s0)
ffffffff8000456c: f8843603     	ld	a2, -0x78(s0)
ffffffff80004570: 060e 	slli	a2, a2, 0x3
ffffffff80004572: 95b2 	add	a1, a1, a2
; 			pte = *ptb_get_ptep(ptbp, i);
ffffffff80004574: 618c 	ld	a1, 0x0(a1)
ffffffff80004576: e90c 	sd	a1, 0x10(a0)
; 			if (!pte_valid(pte))
ffffffff80004578: 6908 	ld	a0, 0x10(a0)
ffffffff8000457a: faa43023     	sd	a0, -0x60(s0)
; 	return pte & PTE_VALID;
ffffffff8000457e: fa044503     	lbu	a0, -0x60(s0)
ffffffff80004582: 8905 	andi	a0, a0, 0x1
; 			if (!pte_valid(pte))
ffffffff80004584: e119 	bnez	a0, 0xffffffff8000458a <dump_ptbs+0xf4>
ffffffff80004586: a009 	j	0xffffffff80004588 <dump_ptbs+0xf2>
; 				continue;
ffffffff80004588: a0e5 	j	0xffffffff80004670 <dump_ptbs+0x1da>
ffffffff8000458a: 6505 	lui	a0, 0x1
ffffffff8000458c: 40a40533     	sub	a0, s0, a0
ffffffff80004590: f5853503     	ld	a0, -0xa8(a0)
; 			if(pte_leaf(pte)) {
ffffffff80004594: 6908 	ld	a0, 0x10(a0)
ffffffff80004596: faa43823     	sd	a0, -0x50(s0)
; 	return pte & PTE_LEAF;
ffffffff8000459a: fb044503     	lbu	a0, -0x50(s0)
ffffffff8000459e: 8939 	andi	a0, a0, 0xe
; 			if(pte_leaf(pte)) {
ffffffff800045a0: c911 	beqz	a0, 0xffffffff800045b4 <dump_ptbs+0x11e>
ffffffff800045a2: a009 	j	0xffffffff800045a4 <dump_ptbs+0x10e>
; 				trace("(leaf) ");
ffffffff800045a4: 0004f517     	auipc	a0, 0x4f
ffffffff800045a8: 86250593     	addi	a1, a0, -0x79e
ffffffff800045ac: 4515 	li	a0, 0x5
ffffffff800045ae: e6dfe0ef     	jal	0xffffffff8000341a <printk>
; 			} else {
ffffffff800045b2: a899 	j	0xffffffff80004608 <dump_ptbs+0x172>
; 				trace("(non-leaf) ");
ffffffff800045b4: 0004e517     	auipc	a0, 0x4e
ffffffff800045b8: cd250593     	addi	a1, a0, -0x32e
ffffffff800045bc: 4515 	li	a0, 0x5
ffffffff800045be: e5dfe0ef     	jal	0xffffffff8000341a <printk>
ffffffff800045c2: 6505 	lui	a0, 0x1
ffffffff800045c4: 40a40533     	sub	a0, s0, a0
ffffffff800045c8: f5853683     	ld	a3, -0xa8(a0)
; 				allocated_ptbs[top++] = pte_next_ptb(pte);
ffffffff800045cc: 6a88 	ld	a0, 0x10(a3)
ffffffff800045ce: faa43423     	sd	a0, -0x58(s0)
; 	return (struct pgtable *) ppn_to_phys(pte_get_ppn(pte));
ffffffff800045d2: fa843503     	ld	a0, -0x58(s0)
ffffffff800045d6: faa43c23     	sd	a0, -0x48(s0)
; 	return (ppn_t) (pte & PTE_PPN_MASK) >> PTE_SHIFT;
ffffffff800045da: fb843503     	ld	a0, -0x48(s0)
ffffffff800045de: 052a 	slli	a0, a0, 0xa
ffffffff800045e0: 8151 	srli	a0, a0, 0x14
ffffffff800045e2: fea43023     	sd	a0, -0x20(s0)
; 	return (phys_addr_t) ppn << PAGE_SHIFT;
ffffffff800045e6: fe043503     	ld	a0, -0x20(s0)
ffffffff800045ea: 0532 	slli	a0, a0, 0xc
; 				allocated_ptbs[top++] = pte_next_ptb(pte);
ffffffff800045ec: 728c 	ld	a1, 0x20(a3)
ffffffff800045ee: 00158613     	addi	a2, a1, 0x1
ffffffff800045f2: f290 	sd	a2, 0x20(a3)
ffffffff800045f4: 00359613     	slli	a2, a1, 0x3
ffffffff800045f8: 6585 	lui	a1, 0x1
ffffffff800045fa: 07858593     	addi	a1, a1, 0x78
ffffffff800045fe: 40b405b3     	sub	a1, s0, a1
ffffffff80004602: 95b2 	add	a1, a1, a2
ffffffff80004604: e188 	sd	a0, 0x0(a1)
ffffffff80004606: a009 	j	0xffffffff80004608 <dump_ptbs+0x172>
ffffffff80004608: 6505 	lui	a0, 0x1
ffffffff8000460a: 40a40533     	sub	a0, s0, a0
ffffffff8000460e: f5853503     	ld	a0, -0xa8(a0)
; 			       pte_get_ppn(pte), pte_valid(pte),
ffffffff80004612: 690c 	ld	a1, 0x10(a0)
ffffffff80004614: fcb43023     	sd	a1, -0x40(s0)
; 	return (ppn_t) (pte & PTE_PPN_MASK) >> PTE_SHIFT;
ffffffff80004618: fc043583     	ld	a1, -0x40(s0)
ffffffff8000461c: 05aa 	slli	a1, a1, 0xa
ffffffff8000461e: 0145d613     	srli	a2, a1, 0x14
; 			       pte_get_ppn(pte), pte_valid(pte),
ffffffff80004622: 690c 	ld	a1, 0x10(a0)
ffffffff80004624: f8b43c23     	sd	a1, -0x68(s0)
; 	return pte & PTE_VALID;
ffffffff80004628: f9843583     	ld	a1, -0x68(s0)
ffffffff8000462c: 0015f693     	andi	a3, a1, 0x1
; 			       pte_readable(pte), pte_writable(pte), pte_executable(pte));
ffffffff80004630: 690c 	ld	a1, 0x10(a0)
ffffffff80004632: fcb43423     	sd	a1, -0x38(s0)
; 	return pte & PTE_READ;
ffffffff80004636: fc843583     	ld	a1, -0x38(s0)
ffffffff8000463a: 15fa 	slli	a1, a1, 0x3e
ffffffff8000463c: 03f5d713     	srli	a4, a1, 0x3f
; 			       pte_readable(pte), pte_writable(pte), pte_executable(pte));
ffffffff80004640: 690c 	ld	a1, 0x10(a0)
ffffffff80004642: fcb43823     	sd	a1, -0x30(s0)
; 	return pte & PTE_WRITE;
ffffffff80004646: fd043583     	ld	a1, -0x30(s0)
ffffffff8000464a: 15f6 	slli	a1, a1, 0x3d
ffffffff8000464c: 03f5d793     	srli	a5, a1, 0x3f
; 			       pte_readable(pte), pte_writable(pte), pte_executable(pte));
ffffffff80004650: 6908 	ld	a0, 0x10(a0)
ffffffff80004652: fca43c23     	sd	a0, -0x28(s0)
; 	return pte & PTE_EXEC;
ffffffff80004656: fd843503     	ld	a0, -0x28(s0)
ffffffff8000465a: 1572 	slli	a0, a0, 0x3c
ffffffff8000465c: 03f55813     	srli	a6, a0, 0x3f
; 			trace("PPN=0x%x, V=%d, R=%d, W=%d, X=%d\n",
ffffffff80004660: 0004e517     	auipc	a0, 0x4e
ffffffff80004664: 06c50593     	addi	a1, a0, 0x6c
ffffffff80004668: 4515 	li	a0, 0x5
ffffffff8000466a: db1fe0ef     	jal	0xffffffff8000341a <printk>
; 		}
ffffffff8000466e: a009 	j	0xffffffff80004670 <dump_ptbs+0x1da>
ffffffff80004670: 6505 	lui	a0, 0x1
ffffffff80004672: 40a40533     	sub	a0, s0, a0
ffffffff80004676: f5853583     	ld	a1, -0xa8(a0)
; 		for (size_t i = 0; i < PTB_ENTRY_COUNT; i++) {
ffffffff8000467a: 6188 	ld	a0, 0x0(a1)
ffffffff8000467c: 0505 	addi	a0, a0, 0x1
ffffffff8000467e: e188 	sd	a0, 0x0(a1)
ffffffff80004680: b56d 	j	0xffffffff8000452a <dump_ptbs+0x94>
; 	while (top > 0) {
ffffffff80004682: b595 	j	0xffffffff800044e6 <dump_ptbs+0x50>
ffffffff80004684: 6505 	lui	a0, 0x1
ffffffff80004686: 40a40533     	sub	a0, s0, a0
ffffffff8000468a: f5853503     	ld	a0, -0xa8(a0)
; 	trace("ptbdump: %d PTBs allocated in total\n", total_ptbs);
ffffffff8000468e: 6d10 	ld	a2, 0x18(a0)
ffffffff80004690: 0004e517     	auipc	a0, 0x4e
ffffffff80004694: c5650593     	addi	a1, a0, -0x3aa
ffffffff80004698: 4515 	li	a0, 0x5
ffffffff8000469a: d81fe0ef     	jal	0xffffffff8000341a <printk>
; }
ffffffff8000469e: 7f010113     	addi	sp, sp, 0x7f0
ffffffff800046a2: 6d010113     	addi	sp, sp, 0x6d0
ffffffff800046a6: 70be 	ld	ra, 0x1e8(sp)
ffffffff800046a8: 741e 	ld	s0, 0x1e0(sp)
ffffffff800046aa: 617d 	addi	sp, sp, 0x1f0
ffffffff800046ac: 8082 	ret

ffffffff800046ae <dump_pte>:
; {
ffffffff800046ae: 715d 	addi	sp, sp, -0x50
ffffffff800046b0: e486 	sd	ra, 0x48(sp)
ffffffff800046b2: e0a2 	sd	s0, 0x40(sp)
ffffffff800046b4: 0880 	addi	s0, sp, 0x50
ffffffff800046b6: faa43c23     	sd	a0, -0x48(s0)
; 	if (pte_leaf(pte)) {
ffffffff800046ba: fb843503     	ld	a0, -0x48(s0)
ffffffff800046be: fca43423     	sd	a0, -0x38(s0)
; 	return pte & PTE_LEAF;
ffffffff800046c2: fc844503     	lbu	a0, -0x38(s0)
ffffffff800046c6: 8939 	andi	a0, a0, 0xe
; 	if (pte_leaf(pte)) {
ffffffff800046c8: c911 	beqz	a0, 0xffffffff800046dc <dump_pte+0x2e>
ffffffff800046ca: a009 	j	0xffffffff800046cc <dump_pte+0x1e>
; 		trace("(leaf) ");
ffffffff800046cc: 0004e517     	auipc	a0, 0x4e
ffffffff800046d0: 73a50593     	addi	a1, a0, 0x73a
ffffffff800046d4: 4515 	li	a0, 0x5
ffffffff800046d6: d45fe0ef     	jal	0xffffffff8000341a <printk>
; 	} else {
ffffffff800046da: a809 	j	0xffffffff800046ec <dump_pte+0x3e>
; 		trace("(non-leaf) ");
ffffffff800046dc: 0004e517     	auipc	a0, 0x4e
ffffffff800046e0: baa50593     	addi	a1, a0, -0x456
ffffffff800046e4: 4515 	li	a0, 0x5
ffffffff800046e6: d35fe0ef     	jal	0xffffffff8000341a <printk>
ffffffff800046ea: a009 	j	0xffffffff800046ec <dump_pte+0x3e>
; 	       pte_get_ppn(pte), pte_valid(pte),
ffffffff800046ec: fb843503     	ld	a0, -0x48(s0)
ffffffff800046f0: fca43823     	sd	a0, -0x30(s0)
; 	return (ppn_t) (pte & PTE_PPN_MASK) >> PTE_SHIFT;
ffffffff800046f4: fd043503     	ld	a0, -0x30(s0)
ffffffff800046f8: 052a 	slli	a0, a0, 0xa
ffffffff800046fa: 01455613     	srli	a2, a0, 0x14
; 	       pte_get_ppn(pte), pte_valid(pte),
ffffffff800046fe: fb843503     	ld	a0, -0x48(s0)
ffffffff80004702: fca43023     	sd	a0, -0x40(s0)
; 	return pte & PTE_VALID;
ffffffff80004706: fc043503     	ld	a0, -0x40(s0)
ffffffff8000470a: 00157693     	andi	a3, a0, 0x1
; 	       pte_readable(pte), pte_writable(pte), pte_executable(pte));
ffffffff8000470e: fb843503     	ld	a0, -0x48(s0)
ffffffff80004712: fca43c23     	sd	a0, -0x28(s0)
; 	return pte & PTE_READ;
ffffffff80004716: fd843503     	ld	a0, -0x28(s0)
ffffffff8000471a: 157a 	slli	a0, a0, 0x3e
ffffffff8000471c: 03f55713     	srli	a4, a0, 0x3f
; 	       pte_readable(pte), pte_writable(pte), pte_executable(pte));
ffffffff80004720: fb843503     	ld	a0, -0x48(s0)
ffffffff80004724: fea43023     	sd	a0, -0x20(s0)
; 	return pte & PTE_WRITE;
ffffffff80004728: fe043503     	ld	a0, -0x20(s0)
ffffffff8000472c: 1576 	slli	a0, a0, 0x3d
ffffffff8000472e: 03f55793     	srli	a5, a0, 0x3f
; 	       pte_readable(pte), pte_writable(pte), pte_executable(pte));
ffffffff80004732: fb843503     	ld	a0, -0x48(s0)
ffffffff80004736: fea43423     	sd	a0, -0x18(s0)
; 	return pte & PTE_EXEC;
ffffffff8000473a: fe843503     	ld	a0, -0x18(s0)
ffffffff8000473e: 1572 	slli	a0, a0, 0x3c
ffffffff80004740: 03f55813     	srli	a6, a0, 0x3f
; 	trace("PPN=0x%x, V=%d, R=%d, W=%d, X=%d\n",
ffffffff80004744: 0004e517     	auipc	a0, 0x4e
ffffffff80004748: f8850593     	addi	a1, a0, -0x78
ffffffff8000474c: 4515 	li	a0, 0x5
ffffffff8000474e: ccdfe0ef     	jal	0xffffffff8000341a <printk>
; }
ffffffff80004752: 60a6 	ld	ra, 0x48(sp)
ffffffff80004754: 6406 	ld	s0, 0x40(sp)
ffffffff80004756: 6161 	addi	sp, sp, 0x50
ffffffff80004758: 8082 	ret

ffffffff8000475a <vm_init>:
; {
ffffffff8000475a: 7139 	addi	sp, sp, -0x40
ffffffff8000475c: fc06 	sd	ra, 0x38(sp)
ffffffff8000475e: f822 	sd	s0, 0x30(sp)
ffffffff80004760: 0080 	addi	s0, sp, 0x40
; 	mm_init();
ffffffff80004762: cadff0ef     	jal	0xffffffff8000440e <mm_init>
; 	ptb = va_to_pa(kernel_root_ptb);
ffffffff80004766: 00004517     	auipc	a0, 0x4
ffffffff8000476a: 90250513     	addi	a0, a0, -0x6fe
ffffffff8000476e: 6108 	ld	a0, 0x0(a0)
ffffffff80004770: fea43023     	sd	a0, -0x20(s0)
; 	if (KERNEL_DIRECT_MAP_START <= (u64)va &&
ffffffff80004774: fe043503     	ld	a0, -0x20(s0)
ffffffff80004778: 55fd 	li	a1, -0x1
ffffffff8000477a: 159a 	slli	a1, a1, 0x26
ffffffff8000477c: 02b56263     	bltu	a0, a1, 0xffffffff800047a0 <vm_init+0x46>
ffffffff80004780: a009 	j	0xffffffff80004782 <vm_init+0x28>
; 	    (u64) va <= KERNEL_DIRECT_MAP_END) {
ffffffff80004782: fe043583     	ld	a1, -0x20(s0)
ffffffff80004786: 5565 	li	a0, -0x7
ffffffff80004788: 150e 	slli	a0, a0, 0x23
; 	if (KERNEL_DIRECT_MAP_START <= (u64)va &&
ffffffff8000478a: 00b56b63     	bltu	a0, a1, 0xffffffff800047a0 <vm_init+0x46>
ffffffff8000478e: a009 	j	0xffffffff80004790 <vm_init+0x36>
; 		return (phys_addr_t) va - KERNEL_DIRECT_MAP_START;
ffffffff80004790: fe043503     	ld	a0, -0x20(s0)
ffffffff80004794: 4585 	li	a1, 0x1
ffffffff80004796: 159a 	slli	a1, a1, 0x26
ffffffff80004798: 952e 	add	a0, a0, a1
ffffffff8000479a: fea43423     	sd	a0, -0x18(s0)
ffffffff8000479e: a029 	j	0xffffffff800047a8 <vm_init+0x4e>
ffffffff800047a0: 4501 	li	a0, 0x0
; 		return 0;
ffffffff800047a2: fea43423     	sd	a0, -0x18(s0)
ffffffff800047a6: a009 	j	0xffffffff800047a8 <vm_init+0x4e>
; }
ffffffff800047a8: fe843503     	ld	a0, -0x18(s0)
; 	ptb = va_to_pa(kernel_root_ptb);
ffffffff800047ac: fca43823     	sd	a0, -0x30(s0)
; 	csr_write(CSR_SATP, CSR_SATP_MODE_SV39 | phys_to_ppn(ptb));
ffffffff800047b0: fd043503     	ld	a0, -0x30(s0)
ffffffff800047b4: fca43c23     	sd	a0, -0x28(s0)
; 	return (ppn_t) phys >> PAGE_SHIFT;
ffffffff800047b8: fd843503     	ld	a0, -0x28(s0)
ffffffff800047bc: 8131 	srli	a0, a0, 0xc
ffffffff800047be: 55fd 	li	a1, -0x1
ffffffff800047c0: 15fe 	slli	a1, a1, 0x3f
; 	csr_write(CSR_SATP, CSR_SATP_MODE_SV39 | phys_to_ppn(ptb));
ffffffff800047c2: 8d4d 	or	a0, a0, a1
ffffffff800047c4: fca43423     	sd	a0, -0x38(s0)
ffffffff800047c8: fc843503     	ld	a0, -0x38(s0)
ffffffff800047cc: 18051073     	csrw	satp, a0
; 	__asm__("sfence.vma");
ffffffff800047d0: 12000073     	sfence.vma
; }
ffffffff800047d4: 70e2 	ld	ra, 0x38(sp)
ffffffff800047d6: 7442 	ld	s0, 0x30(sp)
ffffffff800047d8: 6121 	addi	sp, sp, 0x40
ffffffff800047da: 8082 	ret

ffffffff800047dc <memset>:
; {
ffffffff800047dc: 7179 	addi	sp, sp, -0x30
ffffffff800047de: f406 	sd	ra, 0x28(sp)
ffffffff800047e0: f022 	sd	s0, 0x20(sp)
ffffffff800047e2: 1800 	addi	s0, sp, 0x30
ffffffff800047e4: fea43423     	sd	a0, -0x18(s0)
ffffffff800047e8: feb42223     	sw	a1, -0x1c(s0)
ffffffff800047ec: fcc43c23     	sd	a2, -0x28(s0)
; 	uint8_t *ptr = (uint8_t*)dest;
ffffffff800047f0: fe843503     	ld	a0, -0x18(s0)
ffffffff800047f4: fca43823     	sd	a0, -0x30(s0)
; 	while (count--) {
ffffffff800047f8: a009 	j	0xffffffff800047fa <memset+0x1e>
ffffffff800047fa: fd843503     	ld	a0, -0x28(s0)
ffffffff800047fe: fff50593     	addi	a1, a0, -0x1
ffffffff80004802: fcb43c23     	sd	a1, -0x28(s0)
ffffffff80004806: cd09 	beqz	a0, 0xffffffff80004820 <memset+0x44>
ffffffff80004808: a009 	j	0xffffffff8000480a <memset+0x2e>
; 		*ptr++ = (uint8_t)val;
ffffffff8000480a: fe444503     	lbu	a0, -0x1c(s0)
ffffffff8000480e: fd043583     	ld	a1, -0x30(s0)
ffffffff80004812: 00158613     	addi	a2, a1, 0x1
ffffffff80004816: fcc43823     	sd	a2, -0x30(s0)
ffffffff8000481a: 00a58023     	sb	a0, 0x0(a1)
; 	while (count--) {
ffffffff8000481e: bff1 	j	0xffffffff800047fa <memset+0x1e>
; }
ffffffff80004820: 70a2 	ld	ra, 0x28(sp)
ffffffff80004822: 7402 	ld	s0, 0x20(sp)
ffffffff80004824: 6145 	addi	sp, sp, 0x30
ffffffff80004826: 8082 	ret

ffffffff80004828 <memset64>:
; {
ffffffff80004828: 7179 	addi	sp, sp, -0x30
ffffffff8000482a: f406 	sd	ra, 0x28(sp)
ffffffff8000482c: f022 	sd	s0, 0x20(sp)
ffffffff8000482e: 1800 	addi	s0, sp, 0x30
ffffffff80004830: fea43423     	sd	a0, -0x18(s0)
ffffffff80004834: feb43023     	sd	a1, -0x20(s0)
ffffffff80004838: fcc43c23     	sd	a2, -0x28(s0)
; 	while (count--) {
ffffffff8000483c: a009 	j	0xffffffff8000483e <memset64+0x16>
ffffffff8000483e: fd843503     	ld	a0, -0x28(s0)
ffffffff80004842: fff50593     	addi	a1, a0, -0x1
ffffffff80004846: fcb43c23     	sd	a1, -0x28(s0)
ffffffff8000484a: cd01 	beqz	a0, 0xffffffff80004862 <memset64+0x3a>
ffffffff8000484c: a009 	j	0xffffffff8000484e <memset64+0x26>
; 		*dest++ = val;
ffffffff8000484e: fe043503     	ld	a0, -0x20(s0)
ffffffff80004852: fe843583     	ld	a1, -0x18(s0)
ffffffff80004856: 00858613     	addi	a2, a1, 0x8
ffffffff8000485a: fec43423     	sd	a2, -0x18(s0)
ffffffff8000485e: e188 	sd	a0, 0x0(a1)
; 	while (count--) {
ffffffff80004860: bff9 	j	0xffffffff8000483e <memset64+0x16>
; }
ffffffff80004862: 70a2 	ld	ra, 0x28(sp)
ffffffff80004864: 7402 	ld	s0, 0x20(sp)
ffffffff80004866: 6145 	addi	sp, sp, 0x30
ffffffff80004868: 8082 	ret

ffffffff8000486a <memcpy>:
; {
ffffffff8000486a: 7179 	addi	sp, sp, -0x30
ffffffff8000486c: f406 	sd	ra, 0x28(sp)
ffffffff8000486e: f022 	sd	s0, 0x20(sp)
ffffffff80004870: 1800 	addi	s0, sp, 0x30
ffffffff80004872: fea43423     	sd	a0, -0x18(s0)
ffffffff80004876: feb43023     	sd	a1, -0x20(s0)
ffffffff8000487a: fcc43c23     	sd	a2, -0x28(s0)
; 	uint8_t *ptr = (uint8_t*)dest;
ffffffff8000487e: fe843503     	ld	a0, -0x18(s0)
ffffffff80004882: fca43823     	sd	a0, -0x30(s0)
; 	while (count--) {
ffffffff80004886: a009 	j	0xffffffff80004888 <memcpy+0x1e>
ffffffff80004888: fd843503     	ld	a0, -0x28(s0)
ffffffff8000488c: fff50593     	addi	a1, a0, -0x1
ffffffff80004890: fcb43c23     	sd	a1, -0x28(s0)
ffffffff80004894: c11d 	beqz	a0, 0xffffffff800048ba <memcpy+0x50>
ffffffff80004896: a009 	j	0xffffffff80004898 <memcpy+0x2e>
; 		*ptr++ = *(uint8_t*)src++;
ffffffff80004898: fe043503     	ld	a0, -0x20(s0)
ffffffff8000489c: 00150593     	addi	a1, a0, 0x1
ffffffff800048a0: feb43023     	sd	a1, -0x20(s0)
ffffffff800048a4: 00054503     	lbu	a0, 0x0(a0)
ffffffff800048a8: fd043583     	ld	a1, -0x30(s0)
ffffffff800048ac: 00158613     	addi	a2, a1, 0x1
ffffffff800048b0: fcc43823     	sd	a2, -0x30(s0)
ffffffff800048b4: 00a58023     	sb	a0, 0x0(a1)
; 	while (count--) {
ffffffff800048b8: bfc1 	j	0xffffffff80004888 <memcpy+0x1e>
; 	return dest;
ffffffff800048ba: fe843503     	ld	a0, -0x18(s0)
ffffffff800048be: 70a2 	ld	ra, 0x28(sp)
ffffffff800048c0: 7402 	ld	s0, 0x20(sp)
ffffffff800048c2: 6145 	addi	sp, sp, 0x30
ffffffff800048c4: 8082 	ret

ffffffff800048c6 <strncpy>:
; {
ffffffff800048c6: 7179 	addi	sp, sp, -0x30
ffffffff800048c8: f406 	sd	ra, 0x28(sp)
ffffffff800048ca: f022 	sd	s0, 0x20(sp)
ffffffff800048cc: 1800 	addi	s0, sp, 0x30
ffffffff800048ce: fea43423     	sd	a0, -0x18(s0)
ffffffff800048d2: feb43023     	sd	a1, -0x20(s0)
ffffffff800048d6: fcc43c23     	sd	a2, -0x28(s0)
; 	while (n > 1 && *src != '\0') {
ffffffff800048da: a009 	j	0xffffffff800048dc <strncpy+0x16>
ffffffff800048dc: fd843503     	ld	a0, -0x28(s0)
ffffffff800048e0: 4601 	li	a2, 0x0
ffffffff800048e2: 4589 	li	a1, 0x2
ffffffff800048e4: fcc43823     	sd	a2, -0x30(s0)
ffffffff800048e8: 00b56c63     	bltu	a0, a1, 0xffffffff80004900 <strncpy+0x3a>
ffffffff800048ec: a009 	j	0xffffffff800048ee <strncpy+0x28>
ffffffff800048ee: fe043503     	ld	a0, -0x20(s0)
ffffffff800048f2: 00054503     	lbu	a0, 0x0(a0)
ffffffff800048f6: 00a03533     	snez	a0, a0
ffffffff800048fa: fca43823     	sd	a0, -0x30(s0)
ffffffff800048fe: a009 	j	0xffffffff80004900 <strncpy+0x3a>
ffffffff80004900: fd043503     	ld	a0, -0x30(s0)
; 	while (n > 1 && *src != '\0') {
ffffffff80004904: 8905 	andi	a0, a0, 0x1
ffffffff80004906: c905 	beqz	a0, 0xffffffff80004936 <strncpy+0x70>
ffffffff80004908: a009 	j	0xffffffff8000490a <strncpy+0x44>
; 		*dst++ = *src++;
ffffffff8000490a: fe043503     	ld	a0, -0x20(s0)
ffffffff8000490e: 00150593     	addi	a1, a0, 0x1
ffffffff80004912: feb43023     	sd	a1, -0x20(s0)
ffffffff80004916: 00054503     	lbu	a0, 0x0(a0)
ffffffff8000491a: fe843583     	ld	a1, -0x18(s0)
ffffffff8000491e: 00158613     	addi	a2, a1, 0x1
ffffffff80004922: fec43423     	sd	a2, -0x18(s0)
ffffffff80004926: 00a58023     	sb	a0, 0x0(a1)
; 		n--;
ffffffff8000492a: fd843503     	ld	a0, -0x28(s0)
ffffffff8000492e: 157d 	addi	a0, a0, -0x1
ffffffff80004930: fca43c23     	sd	a0, -0x28(s0)
; 	while (n > 1 && *src != '\0') {
ffffffff80004934: b765 	j	0xffffffff800048dc <strncpy+0x16>
; 	dst[n] = 0;
ffffffff80004936: fe843503     	ld	a0, -0x18(s0)
ffffffff8000493a: fd843583     	ld	a1, -0x28(s0)
ffffffff8000493e: 95aa 	add	a1, a1, a0
ffffffff80004940: 4501 	li	a0, 0x0
ffffffff80004942: 00a58023     	sb	a0, 0x0(a1)
; 	return dst;
ffffffff80004946: fe843503     	ld	a0, -0x18(s0)
ffffffff8000494a: 70a2 	ld	ra, 0x28(sp)
ffffffff8000494c: 7402 	ld	s0, 0x20(sp)
ffffffff8000494e: 6145 	addi	sp, sp, 0x30
ffffffff80004950: 8082 	ret

ffffffff80004952 <strcmp>:
; {
ffffffff80004952: 1101 	addi	sp, sp, -0x20
ffffffff80004954: ec06 	sd	ra, 0x18(sp)
ffffffff80004956: e822 	sd	s0, 0x10(sp)
ffffffff80004958: 1000 	addi	s0, sp, 0x20
ffffffff8000495a: fea43423     	sd	a0, -0x18(s0)
ffffffff8000495e: feb43023     	sd	a1, -0x20(s0)
; 	while (*str1 != '\0') {
ffffffff80004962: a009 	j	0xffffffff80004964 <strcmp+0x12>
ffffffff80004964: fe843503     	ld	a0, -0x18(s0)
ffffffff80004968: 00054503     	lbu	a0, 0x0(a0)
ffffffff8000496c: c90d 	beqz	a0, 0xffffffff8000499e <strcmp+0x4c>
ffffffff8000496e: a009 	j	0xffffffff80004970 <strcmp+0x1e>
; 		if (*str1 != *str2)
ffffffff80004970: fe843503     	ld	a0, -0x18(s0)
ffffffff80004974: 00054503     	lbu	a0, 0x0(a0)
ffffffff80004978: fe043583     	ld	a1, -0x20(s0)
ffffffff8000497c: 0005c583     	lbu	a1, 0x0(a1)
ffffffff80004980: 00b50463     	beq	a0, a1, 0xffffffff80004988 <strcmp+0x36>
ffffffff80004984: a009 	j	0xffffffff80004986 <strcmp+0x34>
; 			break;
ffffffff80004986: a821 	j	0xffffffff8000499e <strcmp+0x4c>
; 		str1++; str2++;
ffffffff80004988: fe843503     	ld	a0, -0x18(s0)
ffffffff8000498c: 0505 	addi	a0, a0, 0x1
ffffffff8000498e: fea43423     	sd	a0, -0x18(s0)
ffffffff80004992: fe043503     	ld	a0, -0x20(s0)
ffffffff80004996: 0505 	addi	a0, a0, 0x1
ffffffff80004998: fea43023     	sd	a0, -0x20(s0)
; 	while (*str1 != '\0') {
ffffffff8000499c: b7e1 	j	0xffffffff80004964 <strcmp+0x12>
; 	return *(unsigned char*)str1 - *(unsigned char*)str2;
ffffffff8000499e: fe843503     	ld	a0, -0x18(s0)
ffffffff800049a2: 00054503     	lbu	a0, 0x0(a0)
ffffffff800049a6: fe043583     	ld	a1, -0x20(s0)
ffffffff800049aa: 0005c583     	lbu	a1, 0x0(a1)
ffffffff800049ae: 8d0d 	sub	a0, a0, a1
ffffffff800049b0: 60e2 	ld	ra, 0x18(sp)
ffffffff800049b2: 6442 	ld	s0, 0x10(sp)
ffffffff800049b4: 6105 	addi	sp, sp, 0x20
ffffffff800049b6: 8082 	ret

ffffffff800049b8 <strncmp>:
; {
ffffffff800049b8: 7179 	addi	sp, sp, -0x30
ffffffff800049ba: f406 	sd	ra, 0x28(sp)
ffffffff800049bc: f022 	sd	s0, 0x20(sp)
ffffffff800049be: 1800 	addi	s0, sp, 0x30
ffffffff800049c0: fea43423     	sd	a0, -0x18(s0)
ffffffff800049c4: feb43023     	sd	a1, -0x20(s0)
ffffffff800049c8: fcc43c23     	sd	a2, -0x28(s0)
; 	while (n > 0 && *str1 != '\0') {
ffffffff800049cc: a009 	j	0xffffffff800049ce <strncmp+0x16>
ffffffff800049ce: fd843503     	ld	a0, -0x28(s0)
ffffffff800049d2: 4581 	li	a1, 0x0
ffffffff800049d4: fcb43823     	sd	a1, -0x30(s0)
ffffffff800049d8: c919 	beqz	a0, 0xffffffff800049ee <strncmp+0x36>
ffffffff800049da: a009 	j	0xffffffff800049dc <strncmp+0x24>
ffffffff800049dc: fe843503     	ld	a0, -0x18(s0)
ffffffff800049e0: 00054503     	lbu	a0, 0x0(a0)
ffffffff800049e4: 00a03533     	snez	a0, a0
ffffffff800049e8: fca43823     	sd	a0, -0x30(s0)
ffffffff800049ec: a009 	j	0xffffffff800049ee <strncmp+0x36>
ffffffff800049ee: fd043503     	ld	a0, -0x30(s0)
; 	while (n > 0 && *str1 != '\0') {
ffffffff800049f2: 8905 	andi	a0, a0, 0x1
ffffffff800049f4: c129 	beqz	a0, 0xffffffff80004a36 <strncmp+0x7e>
ffffffff800049f6: a009 	j	0xffffffff800049f8 <strncmp+0x40>
; 		if (--n == 0)
ffffffff800049f8: fd843503     	ld	a0, -0x28(s0)
ffffffff800049fc: 157d 	addi	a0, a0, -0x1
ffffffff800049fe: fca43c23     	sd	a0, -0x28(s0)
ffffffff80004a02: e119 	bnez	a0, 0xffffffff80004a08 <strncmp+0x50>
ffffffff80004a04: a009 	j	0xffffffff80004a06 <strncmp+0x4e>
; 			break;
ffffffff80004a06: a805 	j	0xffffffff80004a36 <strncmp+0x7e>
; 		if (*str1 != *str2)
ffffffff80004a08: fe843503     	ld	a0, -0x18(s0)
ffffffff80004a0c: 00054503     	lbu	a0, 0x0(a0)
ffffffff80004a10: fe043583     	ld	a1, -0x20(s0)
ffffffff80004a14: 0005c583     	lbu	a1, 0x0(a1)
ffffffff80004a18: 00b50463     	beq	a0, a1, 0xffffffff80004a20 <strncmp+0x68>
ffffffff80004a1c: a009 	j	0xffffffff80004a1e <strncmp+0x66>
; 			break;
ffffffff80004a1e: a821 	j	0xffffffff80004a36 <strncmp+0x7e>
; 		str1++;
ffffffff80004a20: fe843503     	ld	a0, -0x18(s0)
ffffffff80004a24: 0505 	addi	a0, a0, 0x1
ffffffff80004a26: fea43423     	sd	a0, -0x18(s0)
; 		str2++;
ffffffff80004a2a: fe043503     	ld	a0, -0x20(s0)
ffffffff80004a2e: 0505 	addi	a0, a0, 0x1
ffffffff80004a30: fea43023     	sd	a0, -0x20(s0)
; 	while (n > 0 && *str1 != '\0') {
ffffffff80004a34: bf69 	j	0xffffffff800049ce <strncmp+0x16>
; 	return *(unsigned char*)str1 - *(unsigned char*)str2;
ffffffff80004a36: fe843503     	ld	a0, -0x18(s0)
ffffffff80004a3a: 00054503     	lbu	a0, 0x0(a0)
ffffffff80004a3e: fe043583     	ld	a1, -0x20(s0)
ffffffff80004a42: 0005c583     	lbu	a1, 0x0(a1)
ffffffff80004a46: 8d0d 	sub	a0, a0, a1
ffffffff80004a48: 70a2 	ld	ra, 0x28(sp)
ffffffff80004a4a: 7402 	ld	s0, 0x20(sp)
ffffffff80004a4c: 6145 	addi	sp, sp, 0x30
ffffffff80004a4e: 8082 	ret

ffffffff80004a50 <strlen>:
; {
ffffffff80004a50: 1101 	addi	sp, sp, -0x20
ffffffff80004a52: ec06 	sd	ra, 0x18(sp)
ffffffff80004a54: e822 	sd	s0, 0x10(sp)
ffffffff80004a56: 1000 	addi	s0, sp, 0x20
ffffffff80004a58: fea43423     	sd	a0, -0x18(s0)
ffffffff80004a5c: 4501 	li	a0, 0x0
; 	size_t len = 0;
ffffffff80004a5e: fea43023     	sd	a0, -0x20(s0)
; 	while (*str++ != '\0') len++;
ffffffff80004a62: a009 	j	0xffffffff80004a64 <strlen+0x14>
ffffffff80004a64: fe843503     	ld	a0, -0x18(s0)
ffffffff80004a68: 00150593     	addi	a1, a0, 0x1
ffffffff80004a6c: feb43423     	sd	a1, -0x18(s0)
ffffffff80004a70: 00054503     	lbu	a0, 0x0(a0)
ffffffff80004a74: c901 	beqz	a0, 0xffffffff80004a84 <strlen+0x34>
ffffffff80004a76: a009 	j	0xffffffff80004a78 <strlen+0x28>
ffffffff80004a78: fe043503     	ld	a0, -0x20(s0)
ffffffff80004a7c: 0505 	addi	a0, a0, 0x1
ffffffff80004a7e: fea43023     	sd	a0, -0x20(s0)
ffffffff80004a82: b7cd 	j	0xffffffff80004a64 <strlen+0x14>
; 	return len;
ffffffff80004a84: fe043503     	ld	a0, -0x20(s0)
ffffffff80004a88: 60e2 	ld	ra, 0x18(sp)
ffffffff80004a8a: 6442 	ld	s0, 0x10(sp)
ffffffff80004a8c: 6105 	addi	sp, sp, 0x20
ffffffff80004a8e: 8082 	ret

ffffffff80004a90 <strstr>:
; {
ffffffff80004a90: 715d 	addi	sp, sp, -0x50
ffffffff80004a92: e486 	sd	ra, 0x48(sp)
ffffffff80004a94: e0a2 	sd	s0, 0x40(sp)
ffffffff80004a96: 0880 	addi	s0, sp, 0x50
ffffffff80004a98: fea43023     	sd	a0, -0x20(s0)
ffffffff80004a9c: fcb43c23     	sd	a1, -0x28(s0)
ffffffff80004aa0: 4501 	li	a0, 0x0
; 	for (i = 0; str[i] != '\0'; i++) {
ffffffff80004aa2: fca43823     	sd	a0, -0x30(s0)
ffffffff80004aa6: a009 	j	0xffffffff80004aa8 <strstr+0x18>
ffffffff80004aa8: fe043503     	ld	a0, -0x20(s0)
ffffffff80004aac: fd043583     	ld	a1, -0x30(s0)
ffffffff80004ab0: 952e 	add	a0, a0, a1
ffffffff80004ab2: 00054503     	lbu	a0, 0x0(a0)
ffffffff80004ab6: c955 	beqz	a0, 0xffffffff80004b6a <strstr+0xda>
ffffffff80004ab8: a009 	j	0xffffffff80004aba <strstr+0x2a>
ffffffff80004aba: 4505 	li	a0, 0x1
; 		match = true;
ffffffff80004abc: fca403a3     	sb	a0, -0x39(s0)
ffffffff80004ac0: 4501 	li	a0, 0x0
; 		for (j = 0; substring[j] != '\0' && str[i + j] != '\0'; j++) {
ffffffff80004ac2: fca43423     	sd	a0, -0x38(s0)
ffffffff80004ac6: a009 	j	0xffffffff80004ac8 <strstr+0x38>
ffffffff80004ac8: fd843503     	ld	a0, -0x28(s0)
ffffffff80004acc: fc843583     	ld	a1, -0x38(s0)
ffffffff80004ad0: 952e 	add	a0, a0, a1
ffffffff80004ad2: 00054503     	lbu	a0, 0x0(a0)
ffffffff80004ad6: 4581 	li	a1, 0x0
ffffffff80004ad8: fab43c23     	sd	a1, -0x48(s0)
ffffffff80004adc: c10d 	beqz	a0, 0xffffffff80004afe <strstr+0x6e>
ffffffff80004ade: a009 	j	0xffffffff80004ae0 <strstr+0x50>
ffffffff80004ae0: fe043503     	ld	a0, -0x20(s0)
ffffffff80004ae4: fd043583     	ld	a1, -0x30(s0)
ffffffff80004ae8: fc843603     	ld	a2, -0x38(s0)
ffffffff80004aec: 95b2 	add	a1, a1, a2
ffffffff80004aee: 952e 	add	a0, a0, a1
ffffffff80004af0: 00054503     	lbu	a0, 0x0(a0)
ffffffff80004af4: 00a03533     	snez	a0, a0
ffffffff80004af8: faa43c23     	sd	a0, -0x48(s0)
ffffffff80004afc: a009 	j	0xffffffff80004afe <strstr+0x6e>
ffffffff80004afe: fb843503     	ld	a0, -0x48(s0)
; 		for (j = 0; substring[j] != '\0' && str[i + j] != '\0'; j++) {
ffffffff80004b02: 8905 	andi	a0, a0, 0x1
ffffffff80004b04: cd1d 	beqz	a0, 0xffffffff80004b42 <strstr+0xb2>
ffffffff80004b06: a009 	j	0xffffffff80004b08 <strstr+0x78>
; 			if (str[i + j] != substring[j]) {
ffffffff80004b08: fe043503     	ld	a0, -0x20(s0)
ffffffff80004b0c: fd043583     	ld	a1, -0x30(s0)
ffffffff80004b10: fc843603     	ld	a2, -0x38(s0)
ffffffff80004b14: 95b2 	add	a1, a1, a2
ffffffff80004b16: 952e 	add	a0, a0, a1
ffffffff80004b18: 00054503     	lbu	a0, 0x0(a0)
ffffffff80004b1c: fd843583     	ld	a1, -0x28(s0)
ffffffff80004b20: 95b2 	add	a1, a1, a2
ffffffff80004b22: 0005c583     	lbu	a1, 0x0(a1)
ffffffff80004b26: 00b50763     	beq	a0, a1, 0xffffffff80004b34 <strstr+0xa4>
ffffffff80004b2a: a009 	j	0xffffffff80004b2c <strstr+0x9c>
ffffffff80004b2c: 4501 	li	a0, 0x0
; 				match = false;
ffffffff80004b2e: fca403a3     	sb	a0, -0x39(s0)
; 				break;
ffffffff80004b32: a801 	j	0xffffffff80004b42 <strstr+0xb2>
; 		}
ffffffff80004b34: a009 	j	0xffffffff80004b36 <strstr+0xa6>
; 		for (j = 0; substring[j] != '\0' && str[i + j] != '\0'; j++) {
ffffffff80004b36: fc843503     	ld	a0, -0x38(s0)
ffffffff80004b3a: 0505 	addi	a0, a0, 0x1
ffffffff80004b3c: fca43423     	sd	a0, -0x38(s0)
ffffffff80004b40: b761 	j	0xffffffff80004ac8 <strstr+0x38>
; 		if (match)
ffffffff80004b42: fc744503     	lbu	a0, -0x39(s0)
ffffffff80004b46: 8905 	andi	a0, a0, 0x1
ffffffff80004b48: c911 	beqz	a0, 0xffffffff80004b5c <strstr+0xcc>
ffffffff80004b4a: a009 	j	0xffffffff80004b4c <strstr+0xbc>
; 			return &str[i];
ffffffff80004b4c: fe043503     	ld	a0, -0x20(s0)
ffffffff80004b50: fd043583     	ld	a1, -0x30(s0)
ffffffff80004b54: 952e 	add	a0, a0, a1
ffffffff80004b56: fea43423     	sd	a0, -0x18(s0)
ffffffff80004b5a: a821 	j	0xffffffff80004b72 <strstr+0xe2>
; 	}
ffffffff80004b5c: a009 	j	0xffffffff80004b5e <strstr+0xce>
; 	for (i = 0; str[i] != '\0'; i++) {
ffffffff80004b5e: fd043503     	ld	a0, -0x30(s0)
ffffffff80004b62: 0505 	addi	a0, a0, 0x1
ffffffff80004b64: fca43823     	sd	a0, -0x30(s0)
ffffffff80004b68: b781 	j	0xffffffff80004aa8 <strstr+0x18>
ffffffff80004b6a: 4501 	li	a0, 0x0
; 	return NULL;
ffffffff80004b6c: fea43423     	sd	a0, -0x18(s0)
ffffffff80004b70: a009 	j	0xffffffff80004b72 <strstr+0xe2>
; }
ffffffff80004b72: fe843503     	ld	a0, -0x18(s0)
ffffffff80004b76: 60a6 	ld	ra, 0x48(sp)
ffffffff80004b78: 6406 	ld	s0, 0x40(sp)
ffffffff80004b7a: 6161 	addi	sp, sp, 0x50
ffffffff80004b7c: 8082 	ret

ffffffff80004b7e <strtou64>:
; {
ffffffff80004b7e: 715d 	addi	sp, sp, -0x50
ffffffff80004b80: e486 	sd	ra, 0x48(sp)
ffffffff80004b82: e0a2 	sd	s0, 0x40(sp)
ffffffff80004b84: 0880 	addi	s0, sp, 0x50
ffffffff80004b86: fea43023     	sd	a0, -0x20(s0)
ffffffff80004b8a: fcb43c23     	sd	a1, -0x28(s0)
; 	char *ptr = str;
ffffffff80004b8e: fe043503     	ld	a0, -0x20(s0)
ffffffff80004b92: fca43823     	sd	a0, -0x30(s0)
ffffffff80004b96: 4501 	li	a0, 0x0
; 	bool neg = false;
ffffffff80004b98: faa40ba3     	sb	a0, -0x49(s0)
; 	if (strncmp(str, "-", 1) == 0) {
ffffffff80004b9c: fe043503     	ld	a0, -0x20(s0)
ffffffff80004ba0: 0004e597     	auipc	a1, 0x4e
ffffffff80004ba4: 13b58593     	addi	a1, a1, 0x13b
ffffffff80004ba8: 4605 	li	a2, 0x1
ffffffff80004baa: e0fff0ef     	jal	0xffffffff800049b8 <strncmp>
ffffffff80004bae: e919 	bnez	a0, 0xffffffff80004bc4 <strtou64+0x46>
ffffffff80004bb0: a009 	j	0xffffffff80004bb2 <strtou64+0x34>
ffffffff80004bb2: 4505 	li	a0, 0x1
; 		neg = true;
ffffffff80004bb4: faa40ba3     	sb	a0, -0x49(s0)
; 		str++;
ffffffff80004bb8: fe043503     	ld	a0, -0x20(s0)
ffffffff80004bbc: 0505 	addi	a0, a0, 0x1
ffffffff80004bbe: fea43023     	sd	a0, -0x20(s0)
; 	}
ffffffff80004bc2: a009 	j	0xffffffff80004bc4 <strtou64+0x46>
; 	if (strncmp(str, "0b", 2) == 0 || strncmp(str, "0B", 2) == 0) {
ffffffff80004bc4: fe043503     	ld	a0, -0x20(s0)
ffffffff80004bc8: 0004e597     	auipc	a1, 0x4e
ffffffff80004bcc: c7658593     	addi	a1, a1, -0x38a
ffffffff80004bd0: 4609 	li	a2, 0x2
ffffffff80004bd2: de7ff0ef     	jal	0xffffffff800049b8 <strncmp>
ffffffff80004bd6: cd09 	beqz	a0, 0xffffffff80004bf0 <strtou64+0x72>
ffffffff80004bd8: a009 	j	0xffffffff80004bda <strtou64+0x5c>
ffffffff80004bda: fe043503     	ld	a0, -0x20(s0)
ffffffff80004bde: 0004d597     	auipc	a1, 0x4d
ffffffff80004be2: 78158593     	addi	a1, a1, 0x781
ffffffff80004be6: 4609 	li	a2, 0x2
ffffffff80004be8: dd1ff0ef     	jal	0xffffffff800049b8 <strncmp>
ffffffff80004bec: e11d 	bnez	a0, 0xffffffff80004c12 <strtou64+0x94>
ffffffff80004bee: a009 	j	0xffffffff80004bf0 <strtou64+0x72>
; 		if (base != 2) {
ffffffff80004bf0: fd843503     	ld	a0, -0x28(s0)
ffffffff80004bf4: 4589 	li	a1, 0x2
ffffffff80004bf6: 00b50763     	beq	a0, a1, 0xffffffff80004c04 <strtou64+0x86>
ffffffff80004bfa: a009 	j	0xffffffff80004bfc <strtou64+0x7e>
ffffffff80004bfc: 4501 	li	a0, 0x0
; 			return 0;
ffffffff80004bfe: fea43423     	sd	a0, -0x18(s0)
ffffffff80004c02: a8d1 	j	0xffffffff80004cd6 <strtou64+0x158>
; 			str += 2;
ffffffff80004c04: fe043503     	ld	a0, -0x20(s0)
ffffffff80004c08: 0509 	addi	a0, a0, 0x2
ffffffff80004c0a: fea43023     	sd	a0, -0x20(s0)
ffffffff80004c0e: a009 	j	0xffffffff80004c10 <strtou64+0x92>
; 	} else if (strncmp(str, "0x", 2) == 0 || strncmp(str, "0X", 2) == 0) {
ffffffff80004c10: a889 	j	0xffffffff80004c62 <strtou64+0xe4>
ffffffff80004c12: fe043503     	ld	a0, -0x20(s0)
ffffffff80004c16: 0004e597     	auipc	a1, 0x4e
ffffffff80004c1a: baf58593     	addi	a1, a1, -0x451
ffffffff80004c1e: 4609 	li	a2, 0x2
ffffffff80004c20: d99ff0ef     	jal	0xffffffff800049b8 <strncmp>
ffffffff80004c24: cd09 	beqz	a0, 0xffffffff80004c3e <strtou64+0xc0>
ffffffff80004c26: a009 	j	0xffffffff80004c28 <strtou64+0xaa>
ffffffff80004c28: fe043503     	ld	a0, -0x20(s0)
ffffffff80004c2c: 0004e597     	auipc	a1, 0x4e
ffffffff80004c30: 25258593     	addi	a1, a1, 0x252
ffffffff80004c34: 4609 	li	a2, 0x2
ffffffff80004c36: d83ff0ef     	jal	0xffffffff800049b8 <strncmp>
ffffffff80004c3a: e11d 	bnez	a0, 0xffffffff80004c60 <strtou64+0xe2>
ffffffff80004c3c: a009 	j	0xffffffff80004c3e <strtou64+0xc0>
; 		if (base != 16) {
ffffffff80004c3e: fd843503     	ld	a0, -0x28(s0)
ffffffff80004c42: 45c1 	li	a1, 0x10
ffffffff80004c44: 00b50763     	beq	a0, a1, 0xffffffff80004c52 <strtou64+0xd4>
ffffffff80004c48: a009 	j	0xffffffff80004c4a <strtou64+0xcc>
ffffffff80004c4a: 4501 	li	a0, 0x0
; 			return 0;
ffffffff80004c4c: fea43423     	sd	a0, -0x18(s0)
ffffffff80004c50: a059 	j	0xffffffff80004cd6 <strtou64+0x158>
; 			str += 2;
ffffffff80004c52: fe043503     	ld	a0, -0x20(s0)
ffffffff80004c56: 0509 	addi	a0, a0, 0x2
ffffffff80004c58: fea43023     	sd	a0, -0x20(s0)
ffffffff80004c5c: a009 	j	0xffffffff80004c5e <strtou64+0xe0>
; 	}
ffffffff80004c5e: a009 	j	0xffffffff80004c60 <strtou64+0xe2>
ffffffff80004c60: a009 	j	0xffffffff80004c62 <strtou64+0xe4>
ffffffff80004c62: 4501 	li	a0, 0x0
; 	res = 0;
ffffffff80004c64: fca43023     	sd	a0, -0x40(s0)
; 	while (*str != '\0') {
ffffffff80004c68: a009 	j	0xffffffff80004c6a <strtou64+0xec>
ffffffff80004c6a: fe043503     	ld	a0, -0x20(s0)
ffffffff80004c6e: 00054503     	lbu	a0, 0x0(a0)
ffffffff80004c72: cd29 	beqz	a0, 0xffffffff80004ccc <strtou64+0x14e>
ffffffff80004c74: a009 	j	0xffffffff80004c76 <strtou64+0xf8>
; 		c = *str++;
ffffffff80004c76: fe043503     	ld	a0, -0x20(s0)
ffffffff80004c7a: 00150593     	addi	a1, a0, 0x1
ffffffff80004c7e: feb43023     	sd	a1, -0x20(s0)
ffffffff80004c82: 00054503     	lbu	a0, 0x0(a0)
ffffffff80004c86: fca407a3     	sb	a0, -0x31(s0)
; 		digit = (u64) (c - '0');
ffffffff80004c8a: fcf44503     	lbu	a0, -0x31(s0)
ffffffff80004c8e: fd050513     	addi	a0, a0, -0x30
ffffffff80004c92: faa43c23     	sd	a0, -0x48(s0)
; 		if (digit >= base) {
ffffffff80004c96: fb843503     	ld	a0, -0x48(s0)
ffffffff80004c9a: fd843583     	ld	a1, -0x28(s0)
ffffffff80004c9e: 00b56763     	bltu	a0, a1, 0xffffffff80004cac <strtou64+0x12e>
ffffffff80004ca2: a009 	j	0xffffffff80004ca4 <strtou64+0x126>
ffffffff80004ca4: 4501 	li	a0, 0x0
; 			return 0;
ffffffff80004ca6: fea43423     	sd	a0, -0x18(s0)
ffffffff80004caa: a035 	j	0xffffffff80004cd6 <strtou64+0x158>
; 		res *= base;
ffffffff80004cac: fd843583     	ld	a1, -0x28(s0)
ffffffff80004cb0: fc043503     	ld	a0, -0x40(s0)
ffffffff80004cb4: 02b50533     	mul	a0, a0, a1
ffffffff80004cb8: fca43023     	sd	a0, -0x40(s0)
; 		res += digit;
ffffffff80004cbc: fb843583     	ld	a1, -0x48(s0)
ffffffff80004cc0: fc043503     	ld	a0, -0x40(s0)
ffffffff80004cc4: 952e 	add	a0, a0, a1
ffffffff80004cc6: fca43023     	sd	a0, -0x40(s0)
; 	while (*str != '\0') {
ffffffff80004cca: b745 	j	0xffffffff80004c6a <strtou64+0xec>
; 	return res;
ffffffff80004ccc: fc043503     	ld	a0, -0x40(s0)
ffffffff80004cd0: fea43423     	sd	a0, -0x18(s0)
ffffffff80004cd4: a009 	j	0xffffffff80004cd6 <strtou64+0x158>
; }
ffffffff80004cd6: fe843503     	ld	a0, -0x18(s0)
ffffffff80004cda: 60a6 	ld	ra, 0x48(sp)
ffffffff80004cdc: 6406 	ld	s0, 0x40(sp)
ffffffff80004cde: 6161 	addi	sp, sp, 0x50
ffffffff80004ce0: 8082 	ret

ffffffff80004ce2 <panic>:
; {
ffffffff80004ce2: 7159 	addi	sp, sp, -0x70
ffffffff80004ce4: f406 	sd	ra, 0x28(sp)
ffffffff80004ce6: f022 	sd	s0, 0x20(sp)
ffffffff80004ce8: 1800 	addi	s0, sp, 0x30
ffffffff80004cea: 03143c23     	sd	a7, 0x38(s0)
ffffffff80004cee: 03043823     	sd	a6, 0x30(s0)
ffffffff80004cf2: f41c 	sd	a5, 0x28(s0)
ffffffff80004cf4: f018 	sd	a4, 0x20(s0)
ffffffff80004cf6: ec14 	sd	a3, 0x18(s0)
ffffffff80004cf8: e810 	sd	a2, 0x10(s0)
ffffffff80004cfa: e40c 	sd	a1, 0x8(s0)
ffffffff80004cfc: fea43423     	sd	a0, -0x18(s0)
ffffffff80004d00: 00840513     	addi	a0, s0, 0x8
; 	va_start(args, fmt);
ffffffff80004d04: fea43023     	sd	a0, -0x20(s0)
; 	error("----- start of kernel panic -----\n");
ffffffff80004d08: 0004e517     	auipc	a0, 0x4e
ffffffff80004d0c: b3950593     	addi	a1, a0, -0x4c7
ffffffff80004d10: 4505 	li	a0, 0x1
ffffffff80004d12: fca43c23     	sd	a0, -0x28(s0)
ffffffff80004d16: f04fe0ef     	jal	0xffffffff8000341a <printk>
ffffffff80004d1a: fd843503     	ld	a0, -0x28(s0)
; 	vprintk(LOG_ERR, fmt, args);
ffffffff80004d1e: fe843583     	ld	a1, -0x18(s0)
ffffffff80004d22: fe043603     	ld	a2, -0x20(s0)
ffffffff80004d26: 9adfe0ef     	jal	0xffffffff800036d2 <vprintk>
ffffffff80004d2a: fd843503     	ld	a0, -0x28(s0)
; 	error("----- end of kernel panic -----\n");
ffffffff80004d2e: 0004e597     	auipc	a1, 0x4e
ffffffff80004d32: 9f658593     	addi	a1, a1, -0x60a
ffffffff80004d36: ee4fe0ef     	jal	0xffffffff8000341a <printk>
; 	while (1) {
ffffffff80004d3a: a009 	j	0xffffffff80004d3c <panic+0x5a>
; 		__asm__("nop");
ffffffff80004d3c: 0001 	nop
; 	while (1) {
ffffffff80004d3e: bffd 	j	0xffffffff80004d3c <panic+0x5a>

ffffffff80004d40 <bug_set_behavior>:
; {
ffffffff80004d40: 1101 	addi	sp, sp, -0x20
ffffffff80004d42: ec06 	sd	ra, 0x18(sp)
ffffffff80004d44: e822 	sd	s0, 0x10(sp)
ffffffff80004d46: 1000 	addi	s0, sp, 0x20
ffffffff80004d48: fea42623     	sw	a0, -0x14(s0)
; 	bug_behavior = behavior;
ffffffff80004d4c: fec42503     	lw	a0, -0x14(s0)
ffffffff80004d50: 00003597     	auipc	a1, 0x3
ffffffff80004d54: 32058593     	addi	a1, a1, 0x320
ffffffff80004d58: c188 	sw	a0, 0x0(a1)
; }
ffffffff80004d5a: 60e2 	ld	ra, 0x18(sp)
ffffffff80004d5c: 6442 	ld	s0, 0x10(sp)
ffffffff80004d5e: 6105 	addi	sp, sp, 0x20
ffffffff80004d60: 8082 	ret

ffffffff80004d62 <bug_get_behavior>:
; {
ffffffff80004d62: 1141 	addi	sp, sp, -0x10
ffffffff80004d64: e406 	sd	ra, 0x8(sp)
ffffffff80004d66: e022 	sd	s0, 0x0(sp)
ffffffff80004d68: 0800 	addi	s0, sp, 0x10
; 	return bug_behavior;
ffffffff80004d6a: 00003517     	auipc	a0, 0x3
ffffffff80004d6e: 30650513     	addi	a0, a0, 0x306
ffffffff80004d72: 4108 	lw	a0, 0x0(a0)
ffffffff80004d74: 60a2 	ld	ra, 0x8(sp)
ffffffff80004d76: 6402 	ld	s0, 0x0(sp)
ffffffff80004d78: 0141 	addi	sp, sp, 0x10
ffffffff80004d7a: 8082 	ret

ffffffff80004d7c <alloc_init>:
; {
ffffffff80004d7c: 7179 	addi	sp, sp, -0x30
ffffffff80004d7e: f406 	sd	ra, 0x28(sp)
ffffffff80004d80: f022 	sd	s0, 0x20(sp)
ffffffff80004d82: 1800 	addi	s0, sp, 0x30
ffffffff80004d84: fea43023     	sd	a0, -0x20(s0)
; 	if (!IS_ALIGNED(start)) {
ffffffff80004d88: fe045503     	lhu	a0, -0x20(s0)
ffffffff80004d8c: 1552 	slli	a0, a0, 0x34
ffffffff80004d8e: c52d 	beqz	a0, 0xffffffff80004df8 <alloc_init+0x7c>
ffffffff80004d90: a009 	j	0xffffffff80004d92 <alloc_init+0x16>
; 		critical("alloc: tried to init allocator with available memory starting at misaligned address 0x%x!\n", start);
ffffffff80004d92: fe043603     	ld	a2, -0x20(s0)
ffffffff80004d96: 0004e517     	auipc	a0, 0x4e
ffffffff80004d9a: 1c450593     	addi	a1, a0, 0x1c4
ffffffff80004d9e: 4501 	li	a0, 0x0
ffffffff80004da0: e7afe0ef     	jal	0xffffffff8000341a <printk>
; 		BUG();
ffffffff80004da4: a009 	j	0xffffffff80004da6 <alloc_init+0x2a>
ffffffff80004da6: fbdff0ef     	jal	0xffffffff80004d62 <bug_get_behavior>
ffffffff80004daa: e10d 	bnez	a0, 0xffffffff80004dcc <alloc_init+0x50>
ffffffff80004dac: a009 	j	0xffffffff80004dae <alloc_init+0x32>
ffffffff80004dae: 0004e517     	auipc	a0, 0x4e
ffffffff80004db2: 18e50513     	addi	a0, a0, 0x18e
ffffffff80004db6: 0004e597     	auipc	a1, 0x4e
ffffffff80004dba: fce58593     	addi	a1, a1, -0x32
ffffffff80004dbe: 0004d617     	auipc	a2, 0x4d
ffffffff80004dc2: 5a460613     	addi	a2, a2, 0x5a4
ffffffff80004dc6: 46e1 	li	a3, 0x18
ffffffff80004dc8: f1bff0ef     	jal	0xffffffff80004ce2 <panic>
ffffffff80004dcc: 0004e517     	auipc	a0, 0x4e
ffffffff80004dd0: 17050593     	addi	a1, a0, 0x170
ffffffff80004dd4: 0004e517     	auipc	a0, 0x4e
ffffffff80004dd8: fb050613     	addi	a2, a0, -0x50
ffffffff80004ddc: 0004d517     	auipc	a0, 0x4d
ffffffff80004de0: 58650693     	addi	a3, a0, 0x586
ffffffff80004de4: 4501 	li	a0, 0x0
ffffffff80004de6: 4761 	li	a4, 0x18
ffffffff80004de8: e32fe0ef     	jal	0xffffffff8000341a <printk>
ffffffff80004dec: a009 	j	0xffffffff80004dee <alloc_init+0x72>
ffffffff80004dee: a009 	j	0xffffffff80004df0 <alloc_init+0x74>
ffffffff80004df0: 557d 	li	a0, -0x1
; 		return -1;
ffffffff80004df2: fea42623     	sw	a0, -0x14(s0)
ffffffff80004df6: a88d 	j	0xffffffff80004e68 <alloc_init+0xec>
; 	info("alloc: initializing physmem allocator at phys address %p\n", start);
ffffffff80004df8: fe043603     	ld	a2, -0x20(s0)
ffffffff80004dfc: 0004e517     	auipc	a0, 0x4e
ffffffff80004e00: c3850593     	addi	a1, a0, -0x3c8
ffffffff80004e04: 450d 	li	a0, 0x3
ffffffff80004e06: e14fe0ef     	jal	0xffffffff8000341a <printk>
ffffffff80004e0a: 4501 	li	a0, 0x0
; 	for (size_t i = 0; i < ALLOC_LIST_SIZE; i++) {
ffffffff80004e0c: fca43c23     	sd	a0, -0x28(s0)
ffffffff80004e10: a009 	j	0xffffffff80004e12 <alloc_init+0x96>
ffffffff80004e12: fd843503     	ld	a0, -0x28(s0)
ffffffff80004e16: 813d 	srli	a0, a0, 0xf
ffffffff80004e18: e905 	bnez	a0, 0xffffffff80004e48 <alloc_init+0xcc>
ffffffff80004e1a: a009 	j	0xffffffff80004e1c <alloc_init+0xa0>
; 		alloc.list[i] = (u64)start + i * PAGE_SIZE;
ffffffff80004e1c: fe043503     	ld	a0, -0x20(s0)
ffffffff80004e20: fd843583     	ld	a1, -0x28(s0)
ffffffff80004e24: 00c59613     	slli	a2, a1, 0xc
ffffffff80004e28: 9532 	add	a0, a0, a2
ffffffff80004e2a: 00359613     	slli	a2, a1, 0x3
ffffffff80004e2e: 00003597     	auipc	a1, 0x3
ffffffff80004e32: 24a58593     	addi	a1, a1, 0x24a
ffffffff80004e36: 95b2 	add	a1, a1, a2
ffffffff80004e38: e188 	sd	a0, 0x0(a1)
; 	}
ffffffff80004e3a: a009 	j	0xffffffff80004e3c <alloc_init+0xc0>
; 	for (size_t i = 0; i < ALLOC_LIST_SIZE; i++) {
ffffffff80004e3c: fd843503     	ld	a0, -0x28(s0)
ffffffff80004e40: 0505 	addi	a0, a0, 0x1
ffffffff80004e42: fca43c23     	sd	a0, -0x28(s0)
ffffffff80004e46: b7f1 	j	0xffffffff80004e12 <alloc_init+0x96>
; 	alloc.next = 0;
ffffffff80004e48: 000405b7     	lui	a1, 0x40
ffffffff80004e4c: 00003517     	auipc	a0, 0x3
ffffffff80004e50: 22c50513     	addi	a0, a0, 0x22c
ffffffff80004e54: 00b50633     	add	a2, a0, a1
ffffffff80004e58: 4501 	li	a0, 0x0
ffffffff80004e5a: e208 	sd	a0, 0x0(a2)
ffffffff80004e5c: 4585 	li	a1, 0x1
; 	alloc.initialized = true;
ffffffff80004e5e: 00b60423     	sb	a1, 0x8(a2)
; 	return 0;
ffffffff80004e62: fea42623     	sw	a0, -0x14(s0)
ffffffff80004e66: a009 	j	0xffffffff80004e68 <alloc_init+0xec>
; }
ffffffff80004e68: fec42503     	lw	a0, -0x14(s0)
ffffffff80004e6c: 70a2 	ld	ra, 0x28(sp)
ffffffff80004e6e: 7402 	ld	s0, 0x20(sp)
ffffffff80004e70: 6145 	addi	sp, sp, 0x30
ffffffff80004e72: 8082 	ret

ffffffff80004e74 <alloc_get_page>:
; {
ffffffff80004e74: 1101 	addi	sp, sp, -0x20
ffffffff80004e76: ec06 	sd	ra, 0x18(sp)
ffffffff80004e78: e822 	sd	s0, 0x10(sp)
ffffffff80004e7a: 1000 	addi	s0, sp, 0x20
; 	if (!alloc.initialized) {
ffffffff80004e7c: 000405b7     	lui	a1, 0x40
ffffffff80004e80: 00003517     	auipc	a0, 0x3
ffffffff80004e84: 1f850513     	addi	a0, a0, 0x1f8
ffffffff80004e88: 952e 	add	a0, a0, a1
ffffffff80004e8a: 00854503     	lbu	a0, 0x8(a0)
ffffffff80004e8e: 8905 	andi	a0, a0, 0x1
ffffffff80004e90: e52d 	bnez	a0, 0xffffffff80004efa <alloc_get_page+0x86>
ffffffff80004e92: a009 	j	0xffffffff80004e94 <alloc_get_page+0x20>
; 		critical("alloc: tried to alloc pages before initializing the allocator!\n");
ffffffff80004e94: 0004d517     	auipc	a0, 0x4d
ffffffff80004e98: 74150593     	addi	a1, a0, 0x741
ffffffff80004e9c: 4501 	li	a0, 0x0
ffffffff80004e9e: d7cfe0ef     	jal	0xffffffff8000341a <printk>
; 		BUG();
ffffffff80004ea2: a009 	j	0xffffffff80004ea4 <alloc_get_page+0x30>
ffffffff80004ea4: ebfff0ef     	jal	0xffffffff80004d62 <bug_get_behavior>
ffffffff80004ea8: e115 	bnez	a0, 0xffffffff80004ecc <alloc_get_page+0x58>
ffffffff80004eaa: a009 	j	0xffffffff80004eac <alloc_get_page+0x38>
ffffffff80004eac: 0004e517     	auipc	a0, 0x4e
ffffffff80004eb0: 09050513     	addi	a0, a0, 0x90
ffffffff80004eb4: 0004e597     	auipc	a1, 0x4e
ffffffff80004eb8: 03d58593     	addi	a1, a1, 0x3d
ffffffff80004ebc: 0004d617     	auipc	a2, 0x4d
ffffffff80004ec0: 4a660613     	addi	a2, a2, 0x4a6
ffffffff80004ec4: 02900693     	li	a3, 0x29
ffffffff80004ec8: e1bff0ef     	jal	0xffffffff80004ce2 <panic>
ffffffff80004ecc: 0004e517     	auipc	a0, 0x4e
ffffffff80004ed0: 07050593     	addi	a1, a0, 0x70
ffffffff80004ed4: 0004e517     	auipc	a0, 0x4e
ffffffff80004ed8: 01d50613     	addi	a2, a0, 0x1d
ffffffff80004edc: 0004d517     	auipc	a0, 0x4d
ffffffff80004ee0: 48650693     	addi	a3, a0, 0x486
ffffffff80004ee4: 4501 	li	a0, 0x0
ffffffff80004ee6: 02900713     	li	a4, 0x29
ffffffff80004eea: d30fe0ef     	jal	0xffffffff8000341a <printk>
ffffffff80004eee: a009 	j	0xffffffff80004ef0 <alloc_get_page+0x7c>
ffffffff80004ef0: a009 	j	0xffffffff80004ef2 <alloc_get_page+0x7e>
ffffffff80004ef2: 4501 	li	a0, 0x0
; 		return 0;
ffffffff80004ef4: fea43423     	sd	a0, -0x18(s0)
ffffffff80004ef8: a0e9 	j	0xffffffff80004fc2 <alloc_get_page+0x14e>
; 	if (alloc.next == ALLOC_LIST_SIZE - 1)
ffffffff80004efa: 000405b7     	lui	a1, 0x40
ffffffff80004efe: 00003517     	auipc	a0, 0x3
ffffffff80004f02: 17a50513     	addi	a0, a0, 0x17a
ffffffff80004f06: 952e 	add	a0, a0, a1
ffffffff80004f08: 6108 	ld	a0, 0x0(a0)
ffffffff80004f0a: 65a1 	lui	a1, 0x8
ffffffff80004f0c: 15fd 	addi	a1, a1, -0x1
ffffffff80004f0e: 06b51663     	bne	a0, a1, 0xffffffff80004f7a <alloc_get_page+0x106>
ffffffff80004f12: a009 	j	0xffffffff80004f14 <alloc_get_page+0xa0>
; 		critical("alloc: no more free pages to allocate.\n");
ffffffff80004f14: 0004e517     	auipc	a0, 0x4e
ffffffff80004f18: b6c50593     	addi	a1, a0, -0x494
ffffffff80004f1c: 4501 	li	a0, 0x0
ffffffff80004f1e: cfcfe0ef     	jal	0xffffffff8000341a <printk>
; 		BUG();
ffffffff80004f22: a009 	j	0xffffffff80004f24 <alloc_get_page+0xb0>
ffffffff80004f24: e3fff0ef     	jal	0xffffffff80004d62 <bug_get_behavior>
ffffffff80004f28: e115 	bnez	a0, 0xffffffff80004f4c <alloc_get_page+0xd8>
ffffffff80004f2a: a009 	j	0xffffffff80004f2c <alloc_get_page+0xb8>
ffffffff80004f2c: 0004e517     	auipc	a0, 0x4e
ffffffff80004f30: 01050513     	addi	a0, a0, 0x10
ffffffff80004f34: 0004e597     	auipc	a1, 0x4e
ffffffff80004f38: fbd58593     	addi	a1, a1, -0x43
ffffffff80004f3c: 0004d617     	auipc	a2, 0x4d
ffffffff80004f40: 42660613     	addi	a2, a2, 0x426
ffffffff80004f44: 03000693     	li	a3, 0x30
ffffffff80004f48: d9bff0ef     	jal	0xffffffff80004ce2 <panic>
ffffffff80004f4c: 0004e517     	auipc	a0, 0x4e
ffffffff80004f50: ff050593     	addi	a1, a0, -0x10
ffffffff80004f54: 0004e517     	auipc	a0, 0x4e
ffffffff80004f58: f9d50613     	addi	a2, a0, -0x63
ffffffff80004f5c: 0004d517     	auipc	a0, 0x4d
ffffffff80004f60: 40650693     	addi	a3, a0, 0x406
ffffffff80004f64: 4501 	li	a0, 0x0
ffffffff80004f66: 03000713     	li	a4, 0x30
ffffffff80004f6a: cb0fe0ef     	jal	0xffffffff8000341a <printk>
ffffffff80004f6e: a009 	j	0xffffffff80004f70 <alloc_get_page+0xfc>
ffffffff80004f70: a009 	j	0xffffffff80004f72 <alloc_get_page+0xfe>
ffffffff80004f72: 4501 	li	a0, 0x0
; 		return 0;
ffffffff80004f74: fea43423     	sd	a0, -0x18(s0)
ffffffff80004f78: a0a9 	j	0xffffffff80004fc2 <alloc_get_page+0x14e>
; 	phys_addr_t pa = alloc.list[alloc.next];
ffffffff80004f7a: 000405b7     	lui	a1, 0x40
ffffffff80004f7e: 00003517     	auipc	a0, 0x3
ffffffff80004f82: 0fa50513     	addi	a0, a0, 0xfa
ffffffff80004f86: 00b506b3     	add	a3, a0, a1
ffffffff80004f8a: 628c 	ld	a1, 0x0(a3)
ffffffff80004f8c: 058e 	slli	a1, a1, 0x3
ffffffff80004f8e: 95aa 	add	a1, a1, a0
ffffffff80004f90: 618c 	ld	a1, 0x0(a1)
ffffffff80004f92: feb43023     	sd	a1, -0x20(s0)
; 	alloc.list[alloc.next++] = 0;
ffffffff80004f96: 628c 	ld	a1, 0x0(a3)
ffffffff80004f98: 00158613     	addi	a2, a1, 0x1
ffffffff80004f9c: e290 	sd	a2, 0x0(a3)
ffffffff80004f9e: 058e 	slli	a1, a1, 0x3
ffffffff80004fa0: 95aa 	add	a1, a1, a0
ffffffff80004fa2: 4501 	li	a0, 0x0
ffffffff80004fa4: e188 	sd	a0, 0x0(a1)
; 	trace("alloc: allocating physical page 0x%x\n", pa);
ffffffff80004fa6: fe043603     	ld	a2, -0x20(s0)
ffffffff80004faa: 0004d517     	auipc	a0, 0x4d
ffffffff80004fae: 5ab50593     	addi	a1, a0, 0x5ab
ffffffff80004fb2: 4515 	li	a0, 0x5
ffffffff80004fb4: c66fe0ef     	jal	0xffffffff8000341a <printk>
; 	return pa;
ffffffff80004fb8: fe043503     	ld	a0, -0x20(s0)
ffffffff80004fbc: fea43423     	sd	a0, -0x18(s0)
ffffffff80004fc0: a009 	j	0xffffffff80004fc2 <alloc_get_page+0x14e>
; }
ffffffff80004fc2: fe843503     	ld	a0, -0x18(s0)
ffffffff80004fc6: 60e2 	ld	ra, 0x18(sp)
ffffffff80004fc8: 6442 	ld	s0, 0x10(sp)
ffffffff80004fca: 6105 	addi	sp, sp, 0x20
ffffffff80004fcc: 8082 	ret

ffffffff80004fce <alloc_zero_page>:
; {
ffffffff80004fce: 1101 	addi	sp, sp, -0x20
ffffffff80004fd0: ec06 	sd	ra, 0x18(sp)
ffffffff80004fd2: e822 	sd	s0, 0x10(sp)
ffffffff80004fd4: 1000 	addi	s0, sp, 0x20
; 	phys_addr_t addr = alloc_get_page();
ffffffff80004fd6: e9fff0ef     	jal	0xffffffff80004e74 <alloc_get_page>
ffffffff80004fda: fea43423     	sd	a0, -0x18(s0)
; 	memset((void*) addr, 0, PAGE_SIZE);
ffffffff80004fde: fe843503     	ld	a0, -0x18(s0)
ffffffff80004fe2: 4581 	li	a1, 0x0
ffffffff80004fe4: 6605 	lui	a2, 0x1
ffffffff80004fe6: ff6ff0ef     	jal	0xffffffff800047dc <memset>
; 	return addr;
ffffffff80004fea: fe843503     	ld	a0, -0x18(s0)
ffffffff80004fee: 60e2 	ld	ra, 0x18(sp)
ffffffff80004ff0: 6442 	ld	s0, 0x10(sp)
ffffffff80004ff2: 6105 	addi	sp, sp, 0x20
ffffffff80004ff4: 8082 	ret

ffffffff80004ff6 <alloc_free_page>:
; {
ffffffff80004ff6: 1101 	addi	sp, sp, -0x20
ffffffff80004ff8: ec06 	sd	ra, 0x18(sp)
ffffffff80004ffa: e822 	sd	s0, 0x10(sp)
ffffffff80004ffc: 1000 	addi	s0, sp, 0x20
ffffffff80004ffe: fea43023     	sd	a0, -0x20(s0)
; 	if (!alloc.initialized) {
ffffffff80005002: 000405b7     	lui	a1, 0x40
ffffffff80005006: 00003517     	auipc	a0, 0x3
ffffffff8000500a: 07250513     	addi	a0, a0, 0x72
ffffffff8000500e: 952e 	add	a0, a0, a1
ffffffff80005010: 00854503     	lbu	a0, 0x8(a0)
ffffffff80005014: 8905 	andi	a0, a0, 0x1
ffffffff80005016: e52d 	bnez	a0, 0xffffffff80005080 <alloc_free_page+0x8a>
ffffffff80005018: a009 	j	0xffffffff8000501a <alloc_free_page+0x24>
; 		critical("alloc: tried to free pages before initializing the allocator!\n");
ffffffff8000501a: 0004d517     	auipc	a0, 0x4d
ffffffff8000501e: 72b50593     	addi	a1, a0, 0x72b
ffffffff80005022: 4501 	li	a0, 0x0
ffffffff80005024: bf6fe0ef     	jal	0xffffffff8000341a <printk>
; 		BUG();
ffffffff80005028: a009 	j	0xffffffff8000502a <alloc_free_page+0x34>
ffffffff8000502a: d39ff0ef     	jal	0xffffffff80004d62 <bug_get_behavior>
ffffffff8000502e: e115 	bnez	a0, 0xffffffff80005052 <alloc_free_page+0x5c>
ffffffff80005030: a009 	j	0xffffffff80005032 <alloc_free_page+0x3c>
ffffffff80005032: 0004e517     	auipc	a0, 0x4e
ffffffff80005036: f0a50513     	addi	a0, a0, -0xf6
ffffffff8000503a: 0004e597     	auipc	a1, 0x4e
ffffffff8000503e: 95558593     	addi	a1, a1, -0x6ab
ffffffff80005042: 0004d617     	auipc	a2, 0x4d
ffffffff80005046: 32060613     	addi	a2, a2, 0x320
ffffffff8000504a: 04600693     	li	a3, 0x46
ffffffff8000504e: c95ff0ef     	jal	0xffffffff80004ce2 <panic>
ffffffff80005052: 0004e517     	auipc	a0, 0x4e
ffffffff80005056: eea50593     	addi	a1, a0, -0x116
ffffffff8000505a: 0004e517     	auipc	a0, 0x4e
ffffffff8000505e: 93550613     	addi	a2, a0, -0x6cb
ffffffff80005062: 0004d517     	auipc	a0, 0x4d
ffffffff80005066: 30050693     	addi	a3, a0, 0x300
ffffffff8000506a: 4501 	li	a0, 0x0
ffffffff8000506c: 04600713     	li	a4, 0x46
ffffffff80005070: baafe0ef     	jal	0xffffffff8000341a <printk>
ffffffff80005074: a009 	j	0xffffffff80005076 <alloc_free_page+0x80>
ffffffff80005076: a009 	j	0xffffffff80005078 <alloc_free_page+0x82>
ffffffff80005078: 557d 	li	a0, -0x1
; 		return -1;
ffffffff8000507a: fea42623     	sw	a0, -0x14(s0)
ffffffff8000507e: aa21 	j	0xffffffff80005196 <alloc_free_page+0x1a0>
; 	if (!IS_ALIGNED(pa)) {
ffffffff80005080: fe045503     	lhu	a0, -0x20(s0)
ffffffff80005084: 1552 	slli	a0, a0, 0x34
ffffffff80005086: c52d 	beqz	a0, 0xffffffff800050f0 <alloc_free_page+0xfa>
ffffffff80005088: a009 	j	0xffffffff8000508a <alloc_free_page+0x94>
; 		critical("alloc: tried to free page at misaligned physical address!\n");
ffffffff8000508a: 0004d517     	auipc	a0, 0x4d
ffffffff8000508e: 73e50593     	addi	a1, a0, 0x73e
ffffffff80005092: 4501 	li	a0, 0x0
ffffffff80005094: b86fe0ef     	jal	0xffffffff8000341a <printk>
; 		BUG();
ffffffff80005098: a009 	j	0xffffffff8000509a <alloc_free_page+0xa4>
ffffffff8000509a: cc9ff0ef     	jal	0xffffffff80004d62 <bug_get_behavior>
ffffffff8000509e: e115 	bnez	a0, 0xffffffff800050c2 <alloc_free_page+0xcc>
ffffffff800050a0: a009 	j	0xffffffff800050a2 <alloc_free_page+0xac>
ffffffff800050a2: 0004e517     	auipc	a0, 0x4e
ffffffff800050a6: e9a50513     	addi	a0, a0, -0x166
ffffffff800050aa: 0004e597     	auipc	a1, 0x4e
ffffffff800050ae: 8e558593     	addi	a1, a1, -0x71b
ffffffff800050b2: 0004d617     	auipc	a2, 0x4d
ffffffff800050b6: 2b060613     	addi	a2, a2, 0x2b0
ffffffff800050ba: 04c00693     	li	a3, 0x4c
ffffffff800050be: c25ff0ef     	jal	0xffffffff80004ce2 <panic>
ffffffff800050c2: 0004e517     	auipc	a0, 0x4e
ffffffff800050c6: e7a50593     	addi	a1, a0, -0x186
ffffffff800050ca: 0004e517     	auipc	a0, 0x4e
ffffffff800050ce: 8c550613     	addi	a2, a0, -0x73b
ffffffff800050d2: 0004d517     	auipc	a0, 0x4d
ffffffff800050d6: 29050693     	addi	a3, a0, 0x290
ffffffff800050da: 4501 	li	a0, 0x0
ffffffff800050dc: 04c00713     	li	a4, 0x4c
ffffffff800050e0: b3afe0ef     	jal	0xffffffff8000341a <printk>
ffffffff800050e4: a009 	j	0xffffffff800050e6 <alloc_free_page+0xf0>
ffffffff800050e6: a009 	j	0xffffffff800050e8 <alloc_free_page+0xf2>
ffffffff800050e8: 557d 	li	a0, -0x1
; 		return -1;
ffffffff800050ea: fea42623     	sw	a0, -0x14(s0)
ffffffff800050ee: a065 	j	0xffffffff80005196 <alloc_free_page+0x1a0>
; 	if (alloc.next == 0) {
ffffffff800050f0: 000405b7     	lui	a1, 0x40
ffffffff800050f4: 00003517     	auipc	a0, 0x3
ffffffff800050f8: f8450513     	addi	a0, a0, -0x7c
ffffffff800050fc: 952e 	add	a0, a0, a1
ffffffff800050fe: 6108 	ld	a0, 0x0(a0)
ffffffff80005100: e52d 	bnez	a0, 0xffffffff8000516a <alloc_free_page+0x174>
ffffffff80005102: a009 	j	0xffffffff80005104 <alloc_free_page+0x10e>
; 		critical("alloc: tried to free page when no pages have been allocated!\n");
ffffffff80005104: 0004e517     	auipc	a0, 0x4e
ffffffff80005108: eb150593     	addi	a1, a0, -0x14f
ffffffff8000510c: 4501 	li	a0, 0x0
ffffffff8000510e: b0cfe0ef     	jal	0xffffffff8000341a <printk>
; 		BUG();
ffffffff80005112: a009 	j	0xffffffff80005114 <alloc_free_page+0x11e>
ffffffff80005114: c4fff0ef     	jal	0xffffffff80004d62 <bug_get_behavior>
ffffffff80005118: e115 	bnez	a0, 0xffffffff8000513c <alloc_free_page+0x146>
ffffffff8000511a: a009 	j	0xffffffff8000511c <alloc_free_page+0x126>
ffffffff8000511c: 0004e517     	auipc	a0, 0x4e
ffffffff80005120: e2050513     	addi	a0, a0, -0x1e0
ffffffff80005124: 0004e597     	auipc	a1, 0x4e
ffffffff80005128: 86b58593     	addi	a1, a1, -0x795
ffffffff8000512c: 0004d617     	auipc	a2, 0x4d
ffffffff80005130: 23660613     	addi	a2, a2, 0x236
ffffffff80005134: 05200693     	li	a3, 0x52
ffffffff80005138: babff0ef     	jal	0xffffffff80004ce2 <panic>
ffffffff8000513c: 0004e517     	auipc	a0, 0x4e
ffffffff80005140: e0050593     	addi	a1, a0, -0x200
ffffffff80005144: 0004e517     	auipc	a0, 0x4e
ffffffff80005148: 84b50613     	addi	a2, a0, -0x7b5
ffffffff8000514c: 0004d517     	auipc	a0, 0x4d
ffffffff80005150: 21650693     	addi	a3, a0, 0x216
ffffffff80005154: 4501 	li	a0, 0x0
ffffffff80005156: 05200713     	li	a4, 0x52
ffffffff8000515a: ac0fe0ef     	jal	0xffffffff8000341a <printk>
ffffffff8000515e: a009 	j	0xffffffff80005160 <alloc_free_page+0x16a>
ffffffff80005160: a009 	j	0xffffffff80005162 <alloc_free_page+0x16c>
ffffffff80005162: 557d 	li	a0, -0x1
; 		return -1;
ffffffff80005164: fea42623     	sw	a0, -0x14(s0)
ffffffff80005168: a03d 	j	0xffffffff80005196 <alloc_free_page+0x1a0>
; 	alloc.list[--alloc.next] = pa;
ffffffff8000516a: fe043503     	ld	a0, -0x20(s0)
ffffffff8000516e: 000405b7     	lui	a1, 0x40
ffffffff80005172: 00003617     	auipc	a2, 0x3
ffffffff80005176: f0660613     	addi	a2, a2, -0xfa
ffffffff8000517a: 00b60733     	add	a4, a2, a1
ffffffff8000517e: 6314 	ld	a3, 0x0(a4)
ffffffff80005180: 00369593     	slli	a1, a3, 0x3
ffffffff80005184: 16fd 	addi	a3, a3, -0x1
ffffffff80005186: e314 	sd	a3, 0x0(a4)
ffffffff80005188: 95b2 	add	a1, a1, a2
ffffffff8000518a: fea5bc23     	sd	a0, -0x8(a1)
ffffffff8000518e: 4501 	li	a0, 0x0
; 	return 0;
ffffffff80005190: fea42623     	sw	a0, -0x14(s0)
ffffffff80005194: a009 	j	0xffffffff80005196 <alloc_free_page+0x1a0>
; }
ffffffff80005196: fec42503     	lw	a0, -0x14(s0)
ffffffff8000519a: 60e2 	ld	ra, 0x18(sp)
ffffffff8000519c: 6442 	ld	s0, 0x10(sp)
ffffffff8000519e: 6105 	addi	sp, sp, 0x20
ffffffff800051a0: 8082 	ret

ffffffff800051a2 <be_to_le>:
; {
ffffffff800051a2: 7179 	addi	sp, sp, -0x30
ffffffff800051a4: f406 	sd	ra, 0x28(sp)
ffffffff800051a6: f022 	sd	s0, 0x20(sp)
ffffffff800051a8: 1800 	addi	s0, sp, 0x30
ffffffff800051aa: fea42623     	sw	a0, -0x14(s0)
ffffffff800051ae: fec40513     	addi	a0, s0, -0x14
; 	u8 *ptr = (u8*) &be;
ffffffff800051b2: fea43023     	sd	a0, -0x20(s0)
; 	u8 bytes[4] = { ptr[3], ptr[2], ptr[1], ptr[0] };
ffffffff800051b6: fe043503     	ld	a0, -0x20(s0)
ffffffff800051ba: 00354503     	lbu	a0, 0x3(a0)
ffffffff800051be: fca40e23     	sb	a0, -0x24(s0)
ffffffff800051c2: fe043503     	ld	a0, -0x20(s0)
ffffffff800051c6: 00254503     	lbu	a0, 0x2(a0)
ffffffff800051ca: fca40ea3     	sb	a0, -0x23(s0)
ffffffff800051ce: fe043503     	ld	a0, -0x20(s0)
ffffffff800051d2: 00154503     	lbu	a0, 0x1(a0)
ffffffff800051d6: fca40f23     	sb	a0, -0x22(s0)
ffffffff800051da: fe043503     	ld	a0, -0x20(s0)
ffffffff800051de: 00054503     	lbu	a0, 0x0(a0)
ffffffff800051e2: fca40fa3     	sb	a0, -0x21(s0)
; 	return *(u32*)bytes;
ffffffff800051e6: fdd44503     	lbu	a0, -0x23(s0)
ffffffff800051ea: 0522 	slli	a0, a0, 0x8
ffffffff800051ec: fdc44583     	lbu	a1, -0x24(s0)
ffffffff800051f0: 8dc9 	or	a1, a1, a0
ffffffff800051f2: fde44503     	lbu	a0, -0x22(s0)
ffffffff800051f6: 01051613     	slli	a2, a0, 0x10
ffffffff800051fa: fdf40503     	lb	a0, -0x21(s0)
ffffffff800051fe: 0562 	slli	a0, a0, 0x18
ffffffff80005200: 8d51 	or	a0, a0, a2
ffffffff80005202: 8d4d 	or	a0, a0, a1
ffffffff80005204: 70a2 	ld	ra, 0x28(sp)
ffffffff80005206: 7402 	ld	s0, 0x20(sp)
ffffffff80005208: 6145 	addi	sp, sp, 0x30
ffffffff8000520a: 8082 	ret

ffffffff8000520c <dtb_dump_header>:
; {
ffffffff8000520c: 7129 	addi	sp, sp, -0x140
ffffffff8000520e: fe06 	sd	ra, 0x138(sp)
ffffffff80005210: fa22 	sd	s0, 0x130(sp)
ffffffff80005212: 0280 	addi	s0, sp, 0x140
ffffffff80005214: fea43423     	sd	a0, -0x18(s0)
; 	struct dtb_header *header = &dtb->header;
ffffffff80005218: fe843503     	ld	a0, -0x18(s0)
ffffffff8000521c: fea43023     	sd	a0, -0x20(s0)
; 	      header,
ffffffff80005220: fe043503     	ld	a0, -0x20(s0)
ffffffff80005224: f0a43423     	sd	a0, -0xf8(s0)
; 	      DTB_HEADER_GET(dtb, magic),
ffffffff80005228: fe843503     	ld	a0, -0x18(s0)
ffffffff8000522c: fca43c23     	sd	a0, -0x28(s0)
ffffffff80005230: fd843503     	ld	a0, -0x28(s0)
ffffffff80005234: 4108 	lw	a0, 0x0(a0)
ffffffff80005236: fca42a23     	sw	a0, -0x2c(s0)
ffffffff8000523a: fd442503     	lw	a0, -0x2c(s0)
ffffffff8000523e: f65ff0ef     	jal	0xffffffff800051a2 <be_to_le>
ffffffff80005242: fca42823     	sw	a0, -0x30(s0)
ffffffff80005246: fd042503     	lw	a0, -0x30(s0)
ffffffff8000524a: f0a43823     	sd	a0, -0xf0(s0)
; 	      DTB_HEADER_GET(dtb, totalsize),
ffffffff8000524e: fe843503     	ld	a0, -0x18(s0)
ffffffff80005252: 0511 	addi	a0, a0, 0x4
ffffffff80005254: fca43423     	sd	a0, -0x38(s0)
ffffffff80005258: fc843503     	ld	a0, -0x38(s0)
ffffffff8000525c: 4108 	lw	a0, 0x0(a0)
ffffffff8000525e: fca42223     	sw	a0, -0x3c(s0)
ffffffff80005262: fc442503     	lw	a0, -0x3c(s0)
ffffffff80005266: f3dff0ef     	jal	0xffffffff800051a2 <be_to_le>
ffffffff8000526a: fca42023     	sw	a0, -0x40(s0)
ffffffff8000526e: fc042503     	lw	a0, -0x40(s0)
ffffffff80005272: f0a43c23     	sd	a0, -0xe8(s0)
; 	      DTB_HEADER_GET(dtb, off_dt_struct),
ffffffff80005276: fe843503     	ld	a0, -0x18(s0)
ffffffff8000527a: 0521 	addi	a0, a0, 0x8
ffffffff8000527c: faa43c23     	sd	a0, -0x48(s0)
ffffffff80005280: fb843503     	ld	a0, -0x48(s0)
ffffffff80005284: 4108 	lw	a0, 0x0(a0)
ffffffff80005286: faa42a23     	sw	a0, -0x4c(s0)
ffffffff8000528a: fb442503     	lw	a0, -0x4c(s0)
ffffffff8000528e: f15ff0ef     	jal	0xffffffff800051a2 <be_to_le>
ffffffff80005292: faa42823     	sw	a0, -0x50(s0)
ffffffff80005296: fb042503     	lw	a0, -0x50(s0)
ffffffff8000529a: f2a43023     	sd	a0, -0xe0(s0)
; 	      DTB_HEADER_GET(dtb, off_dt_strings),
ffffffff8000529e: fe843503     	ld	a0, -0x18(s0)
ffffffff800052a2: 0531 	addi	a0, a0, 0xc
ffffffff800052a4: faa43423     	sd	a0, -0x58(s0)
ffffffff800052a8: fa843503     	ld	a0, -0x58(s0)
ffffffff800052ac: 4108 	lw	a0, 0x0(a0)
ffffffff800052ae: faa42223     	sw	a0, -0x5c(s0)
ffffffff800052b2: fa442503     	lw	a0, -0x5c(s0)
ffffffff800052b6: eedff0ef     	jal	0xffffffff800051a2 <be_to_le>
ffffffff800052ba: faa42023     	sw	a0, -0x60(s0)
ffffffff800052be: fa042503     	lw	a0, -0x60(s0)
ffffffff800052c2: f2a43423     	sd	a0, -0xd8(s0)
; 	      DTB_HEADER_GET(dtb, off_mem_rsvmap),
ffffffff800052c6: fe843503     	ld	a0, -0x18(s0)
ffffffff800052ca: 0541 	addi	a0, a0, 0x10
ffffffff800052cc: f8a43c23     	sd	a0, -0x68(s0)
ffffffff800052d0: f9843503     	ld	a0, -0x68(s0)
ffffffff800052d4: 4108 	lw	a0, 0x0(a0)
ffffffff800052d6: f8a42a23     	sw	a0, -0x6c(s0)
ffffffff800052da: f9442503     	lw	a0, -0x6c(s0)
ffffffff800052de: ec5ff0ef     	jal	0xffffffff800051a2 <be_to_le>
ffffffff800052e2: f8a42823     	sw	a0, -0x70(s0)
ffffffff800052e6: f9042503     	lw	a0, -0x70(s0)
ffffffff800052ea: f2a43823     	sd	a0, -0xd0(s0)
; 	      DTB_HEADER_GET(dtb, version),
ffffffff800052ee: fe843503     	ld	a0, -0x18(s0)
ffffffff800052f2: 0551 	addi	a0, a0, 0x14
ffffffff800052f4: f8a43423     	sd	a0, -0x78(s0)
ffffffff800052f8: f8843503     	ld	a0, -0x78(s0)
ffffffff800052fc: 4108 	lw	a0, 0x0(a0)
ffffffff800052fe: f8a42223     	sw	a0, -0x7c(s0)
ffffffff80005302: f8442503     	lw	a0, -0x7c(s0)
ffffffff80005306: e9dff0ef     	jal	0xffffffff800051a2 <be_to_le>
ffffffff8000530a: f8a42023     	sw	a0, -0x80(s0)
ffffffff8000530e: f8042503     	lw	a0, -0x80(s0)
ffffffff80005312: f2a43c23     	sd	a0, -0xc8(s0)
; 	      DTB_HEADER_GET(dtb, last_comp_version),
ffffffff80005316: fe843503     	ld	a0, -0x18(s0)
ffffffff8000531a: 0561 	addi	a0, a0, 0x18
ffffffff8000531c: f6a43c23     	sd	a0, -0x88(s0)
ffffffff80005320: f7843503     	ld	a0, -0x88(s0)
ffffffff80005324: 4108 	lw	a0, 0x0(a0)
ffffffff80005326: f6a42a23     	sw	a0, -0x8c(s0)
ffffffff8000532a: f7442503     	lw	a0, -0x8c(s0)
ffffffff8000532e: e75ff0ef     	jal	0xffffffff800051a2 <be_to_le>
ffffffff80005332: f6a42823     	sw	a0, -0x90(s0)
ffffffff80005336: f7042503     	lw	a0, -0x90(s0)
ffffffff8000533a: f0a43023     	sd	a0, -0x100(s0)
; 	      DTB_HEADER_GET(dtb, boot_cpuid_phys),
ffffffff8000533e: fe843503     	ld	a0, -0x18(s0)
ffffffff80005342: 0571 	addi	a0, a0, 0x1c
ffffffff80005344: f6a43423     	sd	a0, -0x98(s0)
ffffffff80005348: f6843503     	ld	a0, -0x98(s0)
ffffffff8000534c: 4108 	lw	a0, 0x0(a0)
ffffffff8000534e: f6a42223     	sw	a0, -0x9c(s0)
ffffffff80005352: f6442503     	lw	a0, -0x9c(s0)
ffffffff80005356: e4dff0ef     	jal	0xffffffff800051a2 <be_to_le>
ffffffff8000535a: f6a42023     	sw	a0, -0xa0(s0)
ffffffff8000535e: f6042503     	lw	a0, -0xa0(s0)
ffffffff80005362: eea43c23     	sd	a0, -0x108(s0)
; 	      DTB_HEADER_GET(dtb, size_dt_strings),
ffffffff80005366: fe843503     	ld	a0, -0x18(s0)
ffffffff8000536a: 02050513     	addi	a0, a0, 0x20
ffffffff8000536e: f4a43c23     	sd	a0, -0xa8(s0)
ffffffff80005372: f5843503     	ld	a0, -0xa8(s0)
ffffffff80005376: 4108 	lw	a0, 0x0(a0)
ffffffff80005378: f4a42a23     	sw	a0, -0xac(s0)
ffffffff8000537c: f5442503     	lw	a0, -0xac(s0)
ffffffff80005380: e23ff0ef     	jal	0xffffffff800051a2 <be_to_le>
ffffffff80005384: f4a42823     	sw	a0, -0xb0(s0)
ffffffff80005388: f5042503     	lw	a0, -0xb0(s0)
ffffffff8000538c: eea43823     	sd	a0, -0x110(s0)
; 	      DTB_HEADER_GET(dtb, size_dt_struct)
ffffffff80005390: fe843503     	ld	a0, -0x18(s0)
ffffffff80005394: 02450513     	addi	a0, a0, 0x24
ffffffff80005398: f4a43423     	sd	a0, -0xb8(s0)
ffffffff8000539c: f4843503     	ld	a0, -0xb8(s0)
ffffffff800053a0: 4108 	lw	a0, 0x0(a0)
ffffffff800053a2: f4a42223     	sw	a0, -0xbc(s0)
ffffffff800053a6: f4442503     	lw	a0, -0xbc(s0)
ffffffff800053aa: df9ff0ef     	jal	0xffffffff800051a2 <be_to_le>
ffffffff800053ae: ef043383     	ld	t2, -0x110(s0)
ffffffff800053b2: ef843303     	ld	t1, -0x108(s0)
ffffffff800053b6: f0043283     	ld	t0, -0x100(s0)
ffffffff800053ba: f0843603     	ld	a2, -0xf8(s0)
ffffffff800053be: f1043683     	ld	a3, -0xf0(s0)
ffffffff800053c2: f1843703     	ld	a4, -0xe8(s0)
ffffffff800053c6: f2043783     	ld	a5, -0xe0(s0)
ffffffff800053ca: f2843803     	ld	a6, -0xd8(s0)
ffffffff800053ce: f3043883     	ld	a7, -0xd0(s0)
ffffffff800053d2: 85aa 	mv	a1, a0
ffffffff800053d4: f3843503     	ld	a0, -0xc8(s0)
ffffffff800053d8: f4b42023     	sw	a1, -0xc0(s0)
ffffffff800053dc: f4042e03     	lw	t3, -0xc0(s0)
; 	trace("dtb header at 0x%x\n"
ffffffff800053e0: 858a 	mv	a1, sp
ffffffff800053e2: 03c5b023     	sd	t3, 0x20(a1)
ffffffff800053e6: 0075bc23     	sd	t2, 0x18(a1)
ffffffff800053ea: 0065b823     	sd	t1, 0x10(a1)
ffffffff800053ee: 0055b423     	sd	t0, 0x8(a1)
ffffffff800053f2: e188 	sd	a0, 0x0(a1)
ffffffff800053f4: 0004d517     	auipc	a0, 0x4d
ffffffff800053f8: 6b450593     	addi	a1, a0, 0x6b4
ffffffff800053fc: 4515 	li	a0, 0x5
ffffffff800053fe: 81cfe0ef     	jal	0xffffffff8000341a <printk>
; }
ffffffff80005402: 70f2 	ld	ra, 0x138(sp)
ffffffff80005404: 7452 	ld	s0, 0x130(sp)
ffffffff80005406: 6131 	addi	sp, sp, 0x140
ffffffff80005408: 8082 	ret

ffffffff8000540a <dtb_struct_token_str>:
; {
ffffffff8000540a: 7179 	addi	sp, sp, -0x30
ffffffff8000540c: f406 	sd	ra, 0x28(sp)
ffffffff8000540e: f022 	sd	s0, 0x20(sp)
ffffffff80005410: 1800 	addi	s0, sp, 0x30
ffffffff80005412: fea42623     	sw	a0, -0x14(s0)
; 	switch (token) {
ffffffff80005416: fec42503     	lw	a0, -0x14(s0)
ffffffff8000541a: fff5059b     	addiw	a1, a0, -0x1
ffffffff8000541e: 02059513     	slli	a0, a1, 0x20
ffffffff80005422: 9101 	srli	a0, a0, 0x20
ffffffff80005424: fca43c23     	sd	a0, -0x28(s0)
ffffffff80005428: 4511 	li	a0, 0x4
ffffffff8000542a: 06b56063     	bltu	a0, a1, 0xffffffff8000548a <dtb_struct_token_str+0x80>
ffffffff8000542e: fd843503     	ld	a0, -0x28(s0)
; 	switch (token) {
ffffffff80005432: 00351593     	slli	a1, a0, 0x3
ffffffff80005436: 0004d517     	auipc	a0, 0x4d
ffffffff8000543a: d2250513     	addi	a0, a0, -0x2de
ffffffff8000543e: 952e 	add	a0, a0, a1
ffffffff80005440: 6108 	ld	a0, 0x0(a0)
ffffffff80005442: 8502 	jr	a0
; 			str = "FDT_BEGIN_NODE";
ffffffff80005444: 0004d517     	auipc	a0, 0x4d
ffffffff80005448: 1d150513     	addi	a0, a0, 0x1d1
ffffffff8000544c: fea43023     	sd	a0, -0x20(s0)
; 			break;
ffffffff80005450: a0a1 	j	0xffffffff80005498 <dtb_struct_token_str+0x8e>
; 			str = "FDT_END_NODE";
ffffffff80005452: 0004d517     	auipc	a0, 0x4d
ffffffff80005456: f1f50513     	addi	a0, a0, -0xe1
ffffffff8000545a: fea43023     	sd	a0, -0x20(s0)
; 			break;
ffffffff8000545e: a82d 	j	0xffffffff80005498 <dtb_struct_token_str+0x8e>
; 			str = "FDT_PROP";
ffffffff80005460: 0004d517     	auipc	a0, 0x4d
ffffffff80005464: 78f50513     	addi	a0, a0, 0x78f
ffffffff80005468: fea43023     	sd	a0, -0x20(s0)
; 			break;
ffffffff8000546c: a035 	j	0xffffffff80005498 <dtb_struct_token_str+0x8e>
; 			str = "FDT_NOP";
ffffffff8000546e: 0004e517     	auipc	a0, 0x4e
ffffffff80005472: 86f50513     	addi	a0, a0, -0x791
ffffffff80005476: fea43023     	sd	a0, -0x20(s0)
; 			break;
ffffffff8000547a: a839 	j	0xffffffff80005498 <dtb_struct_token_str+0x8e>
; 			str = "FDT_END";
ffffffff8000547c: 0004d517     	auipc	a0, 0x4d
ffffffff80005480: 0ff50513     	addi	a0, a0, 0xff
ffffffff80005484: fea43023     	sd	a0, -0x20(s0)
; 			break;
ffffffff80005488: a801 	j	0xffffffff80005498 <dtb_struct_token_str+0x8e>
; 			str = "FDT_UNKNOWN";
ffffffff8000548a: 0004d517     	auipc	a0, 0x4d
ffffffff8000548e: f3450513     	addi	a0, a0, -0xcc
ffffffff80005492: fea43023     	sd	a0, -0x20(s0)
; 			break;
ffffffff80005496: a009 	j	0xffffffff80005498 <dtb_struct_token_str+0x8e>
; 	return str;
ffffffff80005498: fe043503     	ld	a0, -0x20(s0)
ffffffff8000549c: 70a2 	ld	ra, 0x28(sp)
ffffffff8000549e: 7402 	ld	s0, 0x20(sp)
ffffffff800054a0: 6145 	addi	sp, sp, 0x30
ffffffff800054a2: 8082 	ret

ffffffff800054a4 <dtb_read_struct_token>:
; {
ffffffff800054a4: 7139 	addi	sp, sp, -0x40
ffffffff800054a6: fc06 	sd	ra, 0x38(sp)
ffffffff800054a8: f822 	sd	s0, 0x30(sp)
ffffffff800054aa: 0080 	addi	s0, sp, 0x40
ffffffff800054ac: fea43423     	sd	a0, -0x18(s0)
; 	u32 data = be_to_le(*ptr);
ffffffff800054b0: fe843503     	ld	a0, -0x18(s0)
ffffffff800054b4: 4108 	lw	a0, 0x0(a0)
ffffffff800054b6: cedff0ef     	jal	0xffffffff800051a2 <be_to_le>
ffffffff800054ba: fea42223     	sw	a0, -0x1c(s0)
; 	switch (data) {
ffffffff800054be: fe442503     	lw	a0, -0x1c(s0)
ffffffff800054c2: fff5059b     	addiw	a1, a0, -0x1
ffffffff800054c6: 02059513     	slli	a0, a1, 0x20
ffffffff800054ca: 9101 	srli	a0, a0, 0x20
ffffffff800054cc: fca43c23     	sd	a0, -0x28(s0)
ffffffff800054d0: 4511 	li	a0, 0x4
ffffffff800054d2: 04b56163     	bltu	a0, a1, 0xffffffff80005514 <dtb_read_struct_token+0x70>
ffffffff800054d6: fd843503     	ld	a0, -0x28(s0)
; 	switch (data) {
ffffffff800054da: 00351593     	slli	a1, a0, 0x3
ffffffff800054de: 0004d517     	auipc	a0, 0x4d
ffffffff800054e2: ca250513     	addi	a0, a0, -0x35e
ffffffff800054e6: 952e 	add	a0, a0, a1
ffffffff800054e8: 6108 	ld	a0, 0x0(a0)
ffffffff800054ea: 8502 	jr	a0
ffffffff800054ec: 4505 	li	a0, 0x1
; 			token = FDT_BEGIN_NODE;
ffffffff800054ee: fea42023     	sw	a0, -0x20(s0)
; 			break;
ffffffff800054f2: a02d 	j	0xffffffff8000551c <dtb_read_struct_token+0x78>
ffffffff800054f4: 4509 	li	a0, 0x2
; 			token = FDT_END_NODE;
ffffffff800054f6: fea42023     	sw	a0, -0x20(s0)
; 			break;
ffffffff800054fa: a00d 	j	0xffffffff8000551c <dtb_read_struct_token+0x78>
ffffffff800054fc: 450d 	li	a0, 0x3
; 			token = FDT_PROP;
ffffffff800054fe: fea42023     	sw	a0, -0x20(s0)
; 			break;
ffffffff80005502: a829 	j	0xffffffff8000551c <dtb_read_struct_token+0x78>
ffffffff80005504: 4511 	li	a0, 0x4
; 			token = FDT_NOP;
ffffffff80005506: fea42023     	sw	a0, -0x20(s0)
; 			break;
ffffffff8000550a: a809 	j	0xffffffff8000551c <dtb_read_struct_token+0x78>
ffffffff8000550c: 4515 	li	a0, 0x5
; 			token = FDT_END;
ffffffff8000550e: fea42023     	sw	a0, -0x20(s0)
; 			break;
ffffffff80005512: a029 	j	0xffffffff8000551c <dtb_read_struct_token+0x78>
ffffffff80005514: 4501 	li	a0, 0x0
; 			token = FDT_UNKNOWN;
ffffffff80005516: fea42023     	sw	a0, -0x20(s0)
; 			break;
ffffffff8000551a: a009 	j	0xffffffff8000551c <dtb_read_struct_token+0x78>
; 	trace("dtb_match_node_name: [0x%x] %s (0x%x)\n", ptr,
ffffffff8000551c: fe843503     	ld	a0, -0x18(s0)
ffffffff80005520: fca43423     	sd	a0, -0x38(s0)
; 	      dtb_struct_token_str(token), be_to_le(*ptr));
ffffffff80005524: fe042503     	lw	a0, -0x20(s0)
ffffffff80005528: ee3ff0ef     	jal	0xffffffff8000540a <dtb_struct_token_str>
ffffffff8000552c: fca43823     	sd	a0, -0x30(s0)
ffffffff80005530: fe843503     	ld	a0, -0x18(s0)
ffffffff80005534: 4108 	lw	a0, 0x0(a0)
ffffffff80005536: c6dff0ef     	jal	0xffffffff800051a2 <be_to_le>
ffffffff8000553a: fc843603     	ld	a2, -0x38(s0)
ffffffff8000553e: fd043683     	ld	a3, -0x30(s0)
ffffffff80005542: 872a 	mv	a4, a0
; 	trace("dtb_match_node_name: [0x%x] %s (0x%x)\n", ptr,
ffffffff80005544: 0004d517     	auipc	a0, 0x4d
ffffffff80005548: 32050593     	addi	a1, a0, 0x320
ffffffff8000554c: 4515 	li	a0, 0x5
ffffffff8000554e: ecdfd0ef     	jal	0xffffffff8000341a <printk>
; 	return token;
ffffffff80005552: fe042503     	lw	a0, -0x20(s0)
ffffffff80005556: 70e2 	ld	ra, 0x38(sp)
ffffffff80005558: 7442 	ld	s0, 0x30(sp)
ffffffff8000555a: 6121 	addi	sp, sp, 0x40
ffffffff8000555c: 8082 	ret

ffffffff8000555e <dtb_match_node_name_rec>:
; {
ffffffff8000555e: 7111 	addi	sp, sp, -0x100
ffffffff80005560: fd86 	sd	ra, 0xf8(sp)
ffffffff80005562: f9a2 	sd	s0, 0xf0(sp)
ffffffff80005564: 0200 	addi	s0, sp, 0x100
ffffffff80005566: f4b43423     	sd	a1, -0xb8(s0)
ffffffff8000556a: 85aa 	mv	a1, a0
ffffffff8000556c: f4843503     	ld	a0, -0xb8(s0)
ffffffff80005570: f4b43823     	sd	a1, -0xb0(s0)
ffffffff80005574: feb43423     	sd	a1, -0x18(s0)
ffffffff80005578: fea43023     	sd	a0, -0x20(s0)
ffffffff8000557c: fcc43c23     	sd	a2, -0x28(s0)
ffffffff80005580: fcd43823     	sd	a3, -0x30(s0)
ffffffff80005584: 4501 	li	a0, 0x0
ffffffff80005586: f4a43c23     	sd	a0, -0xa8(s0)
; 	struct dtb_node node = { 0 };
ffffffff8000558a: fca43423     	sd	a0, -0x38(s0)
ffffffff8000558e: fca43023     	sd	a0, -0x40(s0)
ffffffff80005592: faa43c23     	sd	a0, -0x48(s0)
ffffffff80005596: faa43823     	sd	a0, -0x50(s0)
; 	struct dtb_node_search_result result = { 0 };
ffffffff8000559a: f588 	sd	a0, 0x28(a1)
ffffffff8000559c: f188 	sd	a0, 0x20(a1)
ffffffff8000559e: ed88 	sd	a0, 0x18(a1)
ffffffff800055a0: e988 	sd	a0, 0x10(a1)
ffffffff800055a2: e588 	sd	a0, 0x8(a1)
ffffffff800055a4: e188 	sd	a0, 0x0(a1)
; 	token = dtb_read_struct_token(ptr);
ffffffff800055a6: fd043503     	ld	a0, -0x30(s0)
ffffffff800055aa: efbff0ef     	jal	0xffffffff800054a4 <dtb_read_struct_token>
ffffffff800055ae: faa42623     	sw	a0, -0x54(s0)
; 	if (token != FDT_BEGIN_NODE) {
ffffffff800055b2: fac42503     	lw	a0, -0x54(s0)
ffffffff800055b6: 4585 	li	a1, 0x1
ffffffff800055b8: 04b50763     	beq	a0, a1, 0xffffffff80005606 <dtb_match_node_name_rec+0xa8>
ffffffff800055bc: a009 	j	0xffffffff800055be <dtb_match_node_name_rec+0x60>
; 		      ptr, dtb_struct_token_str(token), be_to_le(*ptr));
ffffffff800055be: fd043503     	ld	a0, -0x30(s0)
ffffffff800055c2: f2a43c23     	sd	a0, -0xc8(s0)
ffffffff800055c6: fac42503     	lw	a0, -0x54(s0)
ffffffff800055ca: e41ff0ef     	jal	0xffffffff8000540a <dtb_struct_token_str>
ffffffff800055ce: f4a43023     	sd	a0, -0xc0(s0)
ffffffff800055d2: fd043503     	ld	a0, -0x30(s0)
ffffffff800055d6: 4108 	lw	a0, 0x0(a0)
ffffffff800055d8: bcbff0ef     	jal	0xffffffff800051a2 <be_to_le>
ffffffff800055dc: f3843603     	ld	a2, -0xc8(s0)
ffffffff800055e0: f4043683     	ld	a3, -0xc0(s0)
ffffffff800055e4: 872a 	mv	a4, a0
; 		trace("dtb_match_node_name_rec: [0x%x] expected FDT_BEGIN_NODE, got %s (0x%x)!\n",
ffffffff800055e6: 0004d517     	auipc	a0, 0x4d
ffffffff800055ea: eba50593     	addi	a1, a0, -0x146
ffffffff800055ee: 4515 	li	a0, 0x5
ffffffff800055f0: e2bfd0ef     	jal	0xffffffff8000341a <printk>
ffffffff800055f4: f5043583     	ld	a1, -0xb0(s0)
; 		result.ptr = ptr;
ffffffff800055f8: fd043503     	ld	a0, -0x30(s0)
ffffffff800055fc: f588 	sd	a0, 0x28(a1)
ffffffff800055fe: 4501 	li	a0, 0x0
; 		result.match = false;
ffffffff80005600: 00a58023     	sb	a0, 0x0(a1)
; 		return result;
ffffffff80005604: acc1 	j	0xffffffff800058d4 <dtb_match_node_name_rec+0x376>
; 	node.start = ptr;
ffffffff80005606: fd043503     	ld	a0, -0x30(s0)
ffffffff8000560a: faa43c23     	sd	a0, -0x48(s0)
; 	ptr += 1;
ffffffff8000560e: fd043503     	ld	a0, -0x30(s0)
ffffffff80005612: 0511 	addi	a0, a0, 0x4
ffffffff80005614: fca43823     	sd	a0, -0x30(s0)
; 	node.name = (char*)ptr;
ffffffff80005618: fd043503     	ld	a0, -0x30(s0)
ffffffff8000561c: faa43823     	sd	a0, -0x50(s0)
; 	node.prop_start = ptr + DIV_ROUND_UP(strlen(node.name) + 1, 4);
ffffffff80005620: fd043503     	ld	a0, -0x30(s0)
ffffffff80005624: f2a43023     	sd	a0, -0xe0(s0)
ffffffff80005628: fb043503     	ld	a0, -0x50(s0)
ffffffff8000562c: c24ff0ef     	jal	0xffffffff80004a50 <strlen>
ffffffff80005630: 85aa 	mv	a1, a0
ffffffff80005632: f2043503     	ld	a0, -0xe0(s0)
ffffffff80005636: 0591 	addi	a1, a1, 0x4
ffffffff80005638: 99f1 	andi	a1, a1, -0x4
ffffffff8000563a: 952e 	add	a0, a0, a1
ffffffff8000563c: fca43423     	sd	a0, -0x38(s0)
; 	trace("dtb_match_node_name_rec: node \"%s\", strlen=0x%x\n", node.name, strlen(node.name));
ffffffff80005640: fb043503     	ld	a0, -0x50(s0)
ffffffff80005644: f2a43423     	sd	a0, -0xd8(s0)
ffffffff80005648: c08ff0ef     	jal	0xffffffff80004a50 <strlen>
ffffffff8000564c: f2843603     	ld	a2, -0xd8(s0)
ffffffff80005650: 86aa 	mv	a3, a0
ffffffff80005652: 0004d517     	auipc	a0, 0x4d
ffffffff80005656: c4050593     	addi	a1, a0, -0x3c0
ffffffff8000565a: 4515 	li	a0, 0x5
ffffffff8000565c: f2a43823     	sd	a0, -0xd0(s0)
ffffffff80005660: dbbfd0ef     	jal	0xffffffff8000341a <printk>
ffffffff80005664: f3043503     	ld	a0, -0xd0(s0)
; 	trace("dtb_match_node_name_rec: node.prop_start = 0x%x\n", node.prop_start);
ffffffff80005668: fc843603     	ld	a2, -0x38(s0)
ffffffff8000566c: 0004d597     	auipc	a1, 0x4d
ffffffff80005670: 33358593     	addi	a1, a1, 0x333
ffffffff80005674: da7fd0ef     	jal	0xffffffff8000341a <printk>
; 	if (strcmp(node.name, name) == 0) {
ffffffff80005678: fb043503     	ld	a0, -0x50(s0)
ffffffff8000567c: fd843583     	ld	a1, -0x28(s0)
ffffffff80005680: ad2ff0ef     	jal	0xffffffff80004952 <strcmp>
ffffffff80005684: e121 	bnez	a0, 0xffffffff800056c4 <dtb_match_node_name_rec+0x166>
ffffffff80005686: a009 	j	0xffffffff80005688 <dtb_match_node_name_rec+0x12a>
; 		trace("dtb_match_node_name_rec: [\"%s\"] matched\n", node.name);
ffffffff80005688: fb043603     	ld	a2, -0x50(s0)
ffffffff8000568c: 0004d517     	auipc	a0, 0x4d
ffffffff80005690: 24750593     	addi	a1, a0, 0x247
ffffffff80005694: 4515 	li	a0, 0x5
ffffffff80005696: d85fd0ef     	jal	0xffffffff8000341a <printk>
ffffffff8000569a: f5043583     	ld	a1, -0xb0(s0)
ffffffff8000569e: 4505 	li	a0, 0x1
; 		result.match = true;
ffffffff800056a0: 00a58023     	sb	a0, 0x0(a1)
; 		result.node = node;
ffffffff800056a4: fc843503     	ld	a0, -0x38(s0)
ffffffff800056a8: f188 	sd	a0, 0x20(a1)
ffffffff800056aa: fc043503     	ld	a0, -0x40(s0)
ffffffff800056ae: ed88 	sd	a0, 0x18(a1)
ffffffff800056b0: fb843503     	ld	a0, -0x48(s0)
ffffffff800056b4: e988 	sd	a0, 0x10(a1)
ffffffff800056b6: fb043503     	ld	a0, -0x50(s0)
ffffffff800056ba: e588 	sd	a0, 0x8(a1)
; 		result.ptr = ptr;
ffffffff800056bc: fd043503     	ld	a0, -0x30(s0)
ffffffff800056c0: f588 	sd	a0, 0x28(a1)
; 		return result;
ffffffff800056c2: ac09 	j	0xffffffff800058d4 <dtb_match_node_name_rec+0x376>
; 	ptr = node.prop_start;
ffffffff800056c4: fc843503     	ld	a0, -0x38(s0)
ffffffff800056c8: fca43823     	sd	a0, -0x30(s0)
; 	while (1) {
ffffffff800056cc: a009 	j	0xffffffff800056ce <dtb_match_node_name_rec+0x170>
; 		token = dtb_read_struct_token(ptr);
ffffffff800056ce: fd043503     	ld	a0, -0x30(s0)
ffffffff800056d2: dd3ff0ef     	jal	0xffffffff800054a4 <dtb_read_struct_token>
ffffffff800056d6: faa42623     	sw	a0, -0x54(s0)
; 		if (token == FDT_PROP) {
ffffffff800056da: fac42503     	lw	a0, -0x54(s0)
ffffffff800056de: 458d 	li	a1, 0x3
ffffffff800056e0: 0ab51e63     	bne	a0, a1, 0xffffffff8000579c <dtb_match_node_name_rec+0x23e>
ffffffff800056e4: a009 	j	0xffffffff800056e6 <dtb_match_node_name_rec+0x188>
; 			ptr += 1;
ffffffff800056e6: fd043503     	ld	a0, -0x30(s0)
ffffffff800056ea: 0511 	addi	a0, a0, 0x4
ffffffff800056ec: fca43823     	sd	a0, -0x30(s0)
; 			len = be_to_le(*ptr);
ffffffff800056f0: fd043503     	ld	a0, -0x30(s0)
ffffffff800056f4: 4108 	lw	a0, 0x0(a0)
ffffffff800056f6: aadff0ef     	jal	0xffffffff800051a2 <be_to_le>
ffffffff800056fa: faa42423     	sw	a0, -0x58(s0)
; 			ptr += 1;
ffffffff800056fe: fd043503     	ld	a0, -0x30(s0)
ffffffff80005702: 0511 	addi	a0, a0, 0x4
ffffffff80005704: fca43823     	sd	a0, -0x30(s0)
; 			nameoff = be_to_le(*ptr);
ffffffff80005708: fd043503     	ld	a0, -0x30(s0)
ffffffff8000570c: 4108 	lw	a0, 0x0(a0)
ffffffff8000570e: a95ff0ef     	jal	0xffffffff800051a2 <be_to_le>
ffffffff80005712: faa42223     	sw	a0, -0x5c(s0)
; 			ptr += 1;
ffffffff80005716: fd043503     	ld	a0, -0x30(s0)
ffffffff8000571a: 0511 	addi	a0, a0, 0x4
ffffffff8000571c: fca43823     	sd	a0, -0x30(s0)
; 			ptr += DIV_ROUND_UP(len, 4);
ffffffff80005720: fa842503     	lw	a0, -0x58(s0)
ffffffff80005724: 250d 	addiw	a0, a0, 0x3
ffffffff80005726: 0025551b     	srliw	a0, a0, 0x2
ffffffff8000572a: 00251593     	slli	a1, a0, 0x2
ffffffff8000572e: fd043503     	ld	a0, -0x30(s0)
ffffffff80005732: 952e 	add	a0, a0, a1
ffffffff80005734: fca43823     	sd	a0, -0x30(s0)
; 			      ptr, node.name, DTB_STRINGS(dtb) + nameoff, len);
ffffffff80005738: fd043503     	ld	a0, -0x30(s0)
ffffffff8000573c: f0a43423     	sd	a0, -0xf8(s0)
ffffffff80005740: fb043503     	ld	a0, -0x50(s0)
ffffffff80005744: f0a43823     	sd	a0, -0xf0(s0)
ffffffff80005748: fe043503     	ld	a0, -0x20(s0)
ffffffff8000574c: f0a43c23     	sd	a0, -0xe8(s0)
ffffffff80005750: 0531 	addi	a0, a0, 0xc
ffffffff80005752: f8a43c23     	sd	a0, -0x68(s0)
ffffffff80005756: f9843503     	ld	a0, -0x68(s0)
ffffffff8000575a: 4108 	lw	a0, 0x0(a0)
ffffffff8000575c: f8a42a23     	sw	a0, -0x6c(s0)
ffffffff80005760: f9442503     	lw	a0, -0x6c(s0)
ffffffff80005764: a3fff0ef     	jal	0xffffffff800051a2 <be_to_le>
ffffffff80005768: f0843603     	ld	a2, -0xf8(s0)
ffffffff8000576c: f1043683     	ld	a3, -0xf0(s0)
ffffffff80005770: 85aa 	mv	a1, a0
ffffffff80005772: f1843503     	ld	a0, -0xe8(s0)
ffffffff80005776: f8b42823     	sw	a1, -0x70(s0)
ffffffff8000577a: f9046583     	lwu	a1, -0x70(s0)
ffffffff8000577e: 952e 	add	a0, a0, a1
ffffffff80005780: fa446583     	lwu	a1, -0x5c(s0)
ffffffff80005784: 00b50733     	add	a4, a0, a1
ffffffff80005788: fa842783     	lw	a5, -0x58(s0)
; 			trace("dtb_match_node_name_rec: [0x%x] [%s] prop \"%s\", len 0x%x\n",
ffffffff8000578c: 0004d517     	auipc	a0, 0x4d
ffffffff80005790: 1b650593     	addi	a1, a0, 0x1b6
ffffffff80005794: 4515 	li	a0, 0x5
ffffffff80005796: c85fd0ef     	jal	0xffffffff8000341a <printk>
; 			continue;
ffffffff8000579a: bf15 	j	0xffffffff800056ce <dtb_match_node_name_rec+0x170>
; 		} else if (token == FDT_NOP) {
ffffffff8000579c: fac42503     	lw	a0, -0x54(s0)
ffffffff800057a0: 4591 	li	a1, 0x4
ffffffff800057a2: 00b51963     	bne	a0, a1, 0xffffffff800057b4 <dtb_match_node_name_rec+0x256>
ffffffff800057a6: a009 	j	0xffffffff800057a8 <dtb_match_node_name_rec+0x24a>
; 			ptr += 1;
ffffffff800057a8: fd043503     	ld	a0, -0x30(s0)
ffffffff800057ac: 0511 	addi	a0, a0, 0x4
ffffffff800057ae: fca43823     	sd	a0, -0x30(s0)
; 			continue;
ffffffff800057b2: bf31 	j	0xffffffff800056ce <dtb_match_node_name_rec+0x170>
; 			break;
ffffffff800057b4: a009 	j	0xffffffff800057b6 <dtb_match_node_name_rec+0x258>
; 	      ptr, node.name);
ffffffff800057b6: fd043603     	ld	a2, -0x30(s0)
ffffffff800057ba: fb043683     	ld	a3, -0x50(s0)
; 	trace("dtb_match_node_name_rec: [0x%x] [%s] finished parsing properties\n",
ffffffff800057be: 0004d517     	auipc	a0, 0x4d
ffffffff800057c2: 21250593     	addi	a1, a0, 0x212
ffffffff800057c6: 4515 	li	a0, 0x5
ffffffff800057c8: c53fd0ef     	jal	0xffffffff8000341a <printk>
; 	while (1) {
ffffffff800057cc: a009 	j	0xffffffff800057ce <dtb_match_node_name_rec+0x270>
; 		token = dtb_read_struct_token(ptr);
ffffffff800057ce: fd043503     	ld	a0, -0x30(s0)
ffffffff800057d2: cd3ff0ef     	jal	0xffffffff800054a4 <dtb_read_struct_token>
ffffffff800057d6: faa42623     	sw	a0, -0x54(s0)
; 		if (token == FDT_NOP) {
ffffffff800057da: fac42503     	lw	a0, -0x54(s0)
ffffffff800057de: 4591 	li	a1, 0x4
ffffffff800057e0: 00b51963     	bne	a0, a1, 0xffffffff800057f2 <dtb_match_node_name_rec+0x294>
ffffffff800057e4: a009 	j	0xffffffff800057e6 <dtb_match_node_name_rec+0x288>
; 			ptr += 1;
ffffffff800057e6: fd043503     	ld	a0, -0x30(s0)
ffffffff800057ea: 0511 	addi	a0, a0, 0x4
ffffffff800057ec: fca43823     	sd	a0, -0x30(s0)
; 		} else if (token == FDT_BEGIN_NODE) {
ffffffff800057f0: a8bd 	j	0xffffffff8000586e <dtb_match_node_name_rec+0x310>
ffffffff800057f2: fac42503     	lw	a0, -0x54(s0)
ffffffff800057f6: 4585 	li	a1, 0x1
ffffffff800057f8: 06b51963     	bne	a0, a1, 0xffffffff8000586a <dtb_match_node_name_rec+0x30c>
ffffffff800057fc: a009 	j	0xffffffff800057fe <dtb_match_node_name_rec+0x2a0>
; 			result = dtb_match_node_name_rec(dtb, name, ptr);
ffffffff800057fe: fe043583     	ld	a1, -0x20(s0)
ffffffff80005802: fd843603     	ld	a2, -0x28(s0)
ffffffff80005806: fd043683     	ld	a3, -0x30(s0)
ffffffff8000580a: f6040513     	addi	a0, s0, -0xa0
ffffffff8000580e: d51ff0ef     	jal	0xffffffff8000555e <dtb_match_node_name_rec>
ffffffff80005812: f5043503     	ld	a0, -0xb0(s0)
ffffffff80005816: f8843583     	ld	a1, -0x78(s0)
ffffffff8000581a: f50c 	sd	a1, 0x28(a0)
ffffffff8000581c: f8043583     	ld	a1, -0x80(s0)
ffffffff80005820: f10c 	sd	a1, 0x20(a0)
ffffffff80005822: f7843583     	ld	a1, -0x88(s0)
ffffffff80005826: ed0c 	sd	a1, 0x18(a0)
ffffffff80005828: f7043583     	ld	a1, -0x90(s0)
ffffffff8000582c: e90c 	sd	a1, 0x10(a0)
ffffffff8000582e: f6843583     	ld	a1, -0x98(s0)
ffffffff80005832: e50c 	sd	a1, 0x8(a0)
ffffffff80005834: f6043583     	ld	a1, -0xa0(s0)
ffffffff80005838: e10c 	sd	a1, 0x0(a0)
; 			if (result.match) {
ffffffff8000583a: 00054503     	lbu	a0, 0x0(a0)
ffffffff8000583e: 8905 	andi	a0, a0, 0x1
ffffffff80005840: cd19 	beqz	a0, 0xffffffff8000585e <dtb_match_node_name_rec+0x300>
ffffffff80005842: a009 	j	0xffffffff80005844 <dtb_match_node_name_rec+0x2e6>
ffffffff80005844: f5043503     	ld	a0, -0xb0(s0)
; 				      node.name, result.node.name);
ffffffff80005848: fb043603     	ld	a2, -0x50(s0)
ffffffff8000584c: 6514 	ld	a3, 0x8(a0)
; 				trace("dtb_match_node_name_rec: %s: returning match for \"%s\"\n",
ffffffff8000584e: 0004d517     	auipc	a0, 0x4d
ffffffff80005852: b7c50593     	addi	a1, a0, -0x484
ffffffff80005856: 4515 	li	a0, 0x5
ffffffff80005858: bc3fd0ef     	jal	0xffffffff8000341a <printk>
; 				return result;
ffffffff8000585c: a8a5 	j	0xffffffff800058d4 <dtb_match_node_name_rec+0x376>
ffffffff8000585e: f5043503     	ld	a0, -0xb0(s0)
; 			ptr = result.ptr;
ffffffff80005862: 7508 	ld	a0, 0x28(a0)
ffffffff80005864: fca43823     	sd	a0, -0x30(s0)
; 		} else {
ffffffff80005868: a011 	j	0xffffffff8000586c <dtb_match_node_name_rec+0x30e>
; 			break;
ffffffff8000586a: a019 	j	0xffffffff80005870 <dtb_match_node_name_rec+0x312>
ffffffff8000586c: a009 	j	0xffffffff8000586e <dtb_match_node_name_rec+0x310>
; 	while (1) {
ffffffff8000586e: b785 	j	0xffffffff800057ce <dtb_match_node_name_rec+0x270>
; 	if (token == FDT_END_NODE) {
ffffffff80005870: fac42503     	lw	a0, -0x54(s0)
ffffffff80005874: 4589 	li	a1, 0x2
ffffffff80005876: 02b51163     	bne	a0, a1, 0xffffffff80005898 <dtb_match_node_name_rec+0x33a>
ffffffff8000587a: a009 	j	0xffffffff8000587c <dtb_match_node_name_rec+0x31e>
ffffffff8000587c: f5043583     	ld	a1, -0xb0(s0)
; 		ptr += 1;
ffffffff80005880: fd043503     	ld	a0, -0x30(s0)
ffffffff80005884: 0511 	addi	a0, a0, 0x4
ffffffff80005886: fca43823     	sd	a0, -0x30(s0)
; 		result.ptr = ptr;
ffffffff8000588a: fd043503     	ld	a0, -0x30(s0)
ffffffff8000588e: f588 	sd	a0, 0x28(a1)
ffffffff80005890: 4501 	li	a0, 0x0
; 		result.match = false;
ffffffff80005892: 00a58023     	sb	a0, 0x0(a1)
; 		return result;
ffffffff80005896: a83d 	j	0xffffffff800058d4 <dtb_match_node_name_rec+0x376>
; 		      dtb_struct_token_str(token), be_to_le(*ptr));
ffffffff80005898: fac42503     	lw	a0, -0x54(s0)
ffffffff8000589c: b6fff0ef     	jal	0xffffffff8000540a <dtb_struct_token_str>
ffffffff800058a0: f0a43023     	sd	a0, -0x100(s0)
ffffffff800058a4: fd043503     	ld	a0, -0x30(s0)
ffffffff800058a8: 4108 	lw	a0, 0x0(a0)
ffffffff800058aa: 8f9ff0ef     	jal	0xffffffff800051a2 <be_to_le>
ffffffff800058ae: f0043603     	ld	a2, -0x100(s0)
ffffffff800058b2: 86aa 	mv	a3, a0
; 		trace("dtb_match_name_node_rec: [0x%x] expected FDT_END_NODE, got %s (0x%x)\n",
ffffffff800058b4: 0004d517     	auipc	a0, 0x4d
ffffffff800058b8: 04850593     	addi	a1, a0, 0x48
ffffffff800058bc: 4515 	li	a0, 0x5
ffffffff800058be: b5dfd0ef     	jal	0xffffffff8000341a <printk>
ffffffff800058c2: f5043583     	ld	a1, -0xb0(s0)
; 		result.ptr = ptr;
ffffffff800058c6: fd043503     	ld	a0, -0x30(s0)
ffffffff800058ca: f588 	sd	a0, 0x28(a1)
ffffffff800058cc: 4501 	li	a0, 0x0
; 		result.match = false;
ffffffff800058ce: 00a58023     	sb	a0, 0x0(a1)
; 		return result;
ffffffff800058d2: a009 	j	0xffffffff800058d4 <dtb_match_node_name_rec+0x376>
; }
ffffffff800058d4: 70ee 	ld	ra, 0xf8(sp)
ffffffff800058d6: 744e 	ld	s0, 0xf0(sp)
ffffffff800058d8: 6111 	addi	sp, sp, 0x100
ffffffff800058da: 8082 	ret

ffffffff800058dc <dtb_match_node_name>:
; {
ffffffff800058dc: 7171 	addi	sp, sp, -0xb0
ffffffff800058de: f506 	sd	ra, 0xa8(sp)
ffffffff800058e0: f122 	sd	s0, 0xa0(sp)
ffffffff800058e2: 1900 	addi	s0, sp, 0xb0
ffffffff800058e4: f4a43823     	sd	a0, -0xb0(s0)
ffffffff800058e8: fea43423     	sd	a0, -0x18(s0)
ffffffff800058ec: feb43023     	sd	a1, -0x20(s0)
ffffffff800058f0: fcc43c23     	sd	a2, -0x28(s0)
ffffffff800058f4: 4501 	li	a0, 0x0
; 	struct dtb_node_search_result result = { 0 };
ffffffff800058f6: fca43823     	sd	a0, -0x30(s0)
ffffffff800058fa: fca43423     	sd	a0, -0x38(s0)
ffffffff800058fe: fca43023     	sd	a0, -0x40(s0)
ffffffff80005902: faa43c23     	sd	a0, -0x48(s0)
ffffffff80005906: faa43823     	sd	a0, -0x50(s0)
ffffffff8000590a: faa43423     	sd	a0, -0x58(s0)
; 	ptr = DTB_STRUCTS(dtb);
ffffffff8000590e: fe043503     	ld	a0, -0x20(s0)
ffffffff80005912: f4a43c23     	sd	a0, -0xa8(s0)
ffffffff80005916: 0521 	addi	a0, a0, 0x8
ffffffff80005918: f8a43c23     	sd	a0, -0x68(s0)
ffffffff8000591c: f9843503     	ld	a0, -0x68(s0)
ffffffff80005920: 4108 	lw	a0, 0x0(a0)
ffffffff80005922: f8a42a23     	sw	a0, -0x6c(s0)
ffffffff80005926: f9442503     	lw	a0, -0x6c(s0)
ffffffff8000592a: 879ff0ef     	jal	0xffffffff800051a2 <be_to_le>
ffffffff8000592e: 85aa 	mv	a1, a0
ffffffff80005930: f5843503     	ld	a0, -0xa8(s0)
ffffffff80005934: f8b42823     	sw	a1, -0x70(s0)
ffffffff80005938: f9046583     	lwu	a1, -0x70(s0)
ffffffff8000593c: 952e 	add	a0, a0, a1
ffffffff8000593e: faa43023     	sd	a0, -0x60(s0)
; 	result =  dtb_match_node_name_rec(dtb, name, ptr);
ffffffff80005942: fe043583     	ld	a1, -0x20(s0)
ffffffff80005946: fd843603     	ld	a2, -0x28(s0)
ffffffff8000594a: fa043683     	ld	a3, -0x60(s0)
ffffffff8000594e: f6040513     	addi	a0, s0, -0xa0
ffffffff80005952: c0dff0ef     	jal	0xffffffff8000555e <dtb_match_node_name_rec>
ffffffff80005956: f8843503     	ld	a0, -0x78(s0)
ffffffff8000595a: fca43823     	sd	a0, -0x30(s0)
ffffffff8000595e: f8043503     	ld	a0, -0x80(s0)
ffffffff80005962: fca43423     	sd	a0, -0x38(s0)
ffffffff80005966: f7843503     	ld	a0, -0x88(s0)
ffffffff8000596a: fca43023     	sd	a0, -0x40(s0)
ffffffff8000596e: f7043503     	ld	a0, -0x90(s0)
ffffffff80005972: faa43c23     	sd	a0, -0x48(s0)
ffffffff80005976: f6843503     	ld	a0, -0x98(s0)
ffffffff8000597a: faa43823     	sd	a0, -0x50(s0)
ffffffff8000597e: f6043503     	ld	a0, -0xa0(s0)
ffffffff80005982: faa43423     	sd	a0, -0x58(s0)
; 	if (result.match) {
ffffffff80005986: fa844503     	lbu	a0, -0x58(s0)
ffffffff8000598a: 8905 	andi	a0, a0, 0x1
ffffffff8000598c: c10d 	beqz	a0, 0xffffffff800059ae <dtb_match_node_name+0xd2>
ffffffff8000598e: a009 	j	0xffffffff80005990 <dtb_match_node_name+0xb4>
ffffffff80005990: f5043583     	ld	a1, -0xb0(s0)
; 		return result.node;
ffffffff80005994: fc843503     	ld	a0, -0x38(s0)
ffffffff80005998: ed88 	sd	a0, 0x18(a1)
ffffffff8000599a: fc043503     	ld	a0, -0x40(s0)
ffffffff8000599e: e988 	sd	a0, 0x10(a1)
ffffffff800059a0: fb843503     	ld	a0, -0x48(s0)
ffffffff800059a4: e588 	sd	a0, 0x8(a1)
ffffffff800059a6: fb043503     	ld	a0, -0x50(s0)
ffffffff800059aa: e188 	sd	a0, 0x0(a1)
ffffffff800059ac: a809 	j	0xffffffff800059be <dtb_match_node_name+0xe2>
ffffffff800059ae: f5043583     	ld	a1, -0xb0(s0)
ffffffff800059b2: 4501 	li	a0, 0x0
; 		return (struct dtb_node) { 0 };
ffffffff800059b4: ed88 	sd	a0, 0x18(a1)
ffffffff800059b6: e988 	sd	a0, 0x10(a1)
ffffffff800059b8: e588 	sd	a0, 0x8(a1)
ffffffff800059ba: e188 	sd	a0, 0x0(a1)
ffffffff800059bc: a009 	j	0xffffffff800059be <dtb_match_node_name+0xe2>
; }
ffffffff800059be: 70aa 	ld	ra, 0xa8(sp)
ffffffff800059c0: 740a 	ld	s0, 0xa0(sp)
ffffffff800059c2: 614d 	addi	sp, sp, 0xb0
ffffffff800059c4: 8082 	ret

ffffffff800059c6 <dtb_node_match_property>:
; {
ffffffff800059c6: 7159 	addi	sp, sp, -0x70
ffffffff800059c8: f486 	sd	ra, 0x68(sp)
ffffffff800059ca: f0a2 	sd	s0, 0x60(sp)
ffffffff800059cc: 1880 	addi	s0, sp, 0x70
ffffffff800059ce: faa43423     	sd	a0, -0x58(s0)
ffffffff800059d2: fea43423     	sd	a0, -0x18(s0)
ffffffff800059d6: feb43023     	sd	a1, -0x20(s0)
ffffffff800059da: fcc43c23     	sd	a2, -0x28(s0)
ffffffff800059de: fcd43823     	sd	a3, -0x30(s0)
; 	u32 *ptr = node->prop_start;
ffffffff800059e2: fd843503     	ld	a0, -0x28(s0)
ffffffff800059e6: 6d08 	ld	a0, 0x18(a0)
ffffffff800059e8: fca43023     	sd	a0, -0x40(s0)
; 	while (1) {
ffffffff800059ec: a009 	j	0xffffffff800059ee <dtb_node_match_property+0x28>
; 		token = dtb_read_struct_token(ptr);
ffffffff800059ee: fc043503     	ld	a0, -0x40(s0)
ffffffff800059f2: ab3ff0ef     	jal	0xffffffff800054a4 <dtb_read_struct_token>
ffffffff800059f6: fca42623     	sw	a0, -0x34(s0)
; 		if (token == FDT_PROP) {
ffffffff800059fa: fcc42503     	lw	a0, -0x34(s0)
ffffffff800059fe: 458d 	li	a1, 0x3
ffffffff80005a00: 0cb51963     	bne	a0, a1, 0xffffffff80005ad2 <dtb_node_match_property+0x10c>
ffffffff80005a04: a009 	j	0xffffffff80005a06 <dtb_node_match_property+0x40>
; 			ptr += 1;
ffffffff80005a06: fc043503     	ld	a0, -0x40(s0)
ffffffff80005a0a: 0511 	addi	a0, a0, 0x4
ffffffff80005a0c: fca43023     	sd	a0, -0x40(s0)
; 			prop.len = be_to_le(*ptr);
ffffffff80005a10: fc043503     	ld	a0, -0x40(s0)
ffffffff80005a14: 4108 	lw	a0, 0x0(a0)
ffffffff80005a16: f8cff0ef     	jal	0xffffffff800051a2 <be_to_le>
ffffffff80005a1a: fa843583     	ld	a1, -0x58(s0)
ffffffff80005a1e: 1502 	slli	a0, a0, 0x20
ffffffff80005a20: 9101 	srli	a0, a0, 0x20
ffffffff80005a22: e588 	sd	a0, 0x8(a1)
; 			ptr += 1;
ffffffff80005a24: fc043503     	ld	a0, -0x40(s0)
ffffffff80005a28: 0511 	addi	a0, a0, 0x4
ffffffff80005a2a: fca43023     	sd	a0, -0x40(s0)
; 			prop.name = DTB_STRINGS(dtb) + be_to_le(*ptr);
ffffffff80005a2e: fe043503     	ld	a0, -0x20(s0)
ffffffff80005a32: f8a43c23     	sd	a0, -0x68(s0)
ffffffff80005a36: 0531 	addi	a0, a0, 0xc
ffffffff80005a38: faa43c23     	sd	a0, -0x48(s0)
ffffffff80005a3c: fb843503     	ld	a0, -0x48(s0)
ffffffff80005a40: 4108 	lw	a0, 0x0(a0)
ffffffff80005a42: faa42a23     	sw	a0, -0x4c(s0)
ffffffff80005a46: fb442503     	lw	a0, -0x4c(s0)
ffffffff80005a4a: f58ff0ef     	jal	0xffffffff800051a2 <be_to_le>
ffffffff80005a4e: 85aa 	mv	a1, a0
ffffffff80005a50: f9843503     	ld	a0, -0x68(s0)
ffffffff80005a54: fab42823     	sw	a1, -0x50(s0)
ffffffff80005a58: fb046583     	lwu	a1, -0x50(s0)
ffffffff80005a5c: 952e 	add	a0, a0, a1
ffffffff80005a5e: faa43023     	sd	a0, -0x60(s0)
ffffffff80005a62: fc043503     	ld	a0, -0x40(s0)
ffffffff80005a66: 4108 	lw	a0, 0x0(a0)
ffffffff80005a68: f3aff0ef     	jal	0xffffffff800051a2 <be_to_le>
ffffffff80005a6c: fa043583     	ld	a1, -0x60(s0)
ffffffff80005a70: 862a 	mv	a2, a0
ffffffff80005a72: fa843503     	ld	a0, -0x58(s0)
ffffffff80005a76: 1602 	slli	a2, a2, 0x20
ffffffff80005a78: 9201 	srli	a2, a2, 0x20
ffffffff80005a7a: 95b2 	add	a1, a1, a2
ffffffff80005a7c: e10c 	sd	a1, 0x0(a0)
; 			ptr += 1;
ffffffff80005a7e: fc043583     	ld	a1, -0x40(s0)
ffffffff80005a82: 0591 	addi	a1, a1, 0x4
ffffffff80005a84: fcb43023     	sd	a1, -0x40(s0)
; 			prop.value = ptr;
ffffffff80005a88: fc043583     	ld	a1, -0x40(s0)
ffffffff80005a8c: e90c 	sd	a1, 0x10(a0)
; 			ptr += DIV_ROUND_UP(prop.len, 4);
ffffffff80005a8e: 650c 	ld	a1, 0x8(a0)
ffffffff80005a90: 00358613     	addi	a2, a1, 0x3
ffffffff80005a94: fc043583     	ld	a1, -0x40(s0)
ffffffff80005a98: 9a71 	andi	a2, a2, -0x4
ffffffff80005a9a: 95b2 	add	a1, a1, a2
ffffffff80005a9c: fcb43023     	sd	a1, -0x40(s0)
; 			      ptr, node->name, prop.name, prop.len);
ffffffff80005aa0: fc043603     	ld	a2, -0x40(s0)
ffffffff80005aa4: fd843583     	ld	a1, -0x28(s0)
ffffffff80005aa8: 6194 	ld	a3, 0x0(a1)
ffffffff80005aaa: 6118 	ld	a4, 0x0(a0)
ffffffff80005aac: 651c 	ld	a5, 0x8(a0)
; 			trace("dtb_match_node_name_rec: [0x%x] [%s] prop \"%s\", len 0x%x\n",
ffffffff80005aae: 0004d517     	auipc	a0, 0x4d
ffffffff80005ab2: e9450593     	addi	a1, a0, -0x16c
ffffffff80005ab6: 4515 	li	a0, 0x5
ffffffff80005ab8: 963fd0ef     	jal	0xffffffff8000341a <printk>
ffffffff80005abc: fa843503     	ld	a0, -0x58(s0)
; 			if (strcmp(prop.name, name) == 0)
ffffffff80005ac0: 6108 	ld	a0, 0x0(a0)
ffffffff80005ac2: fd043583     	ld	a1, -0x30(s0)
ffffffff80005ac6: e8dfe0ef     	jal	0xffffffff80004952 <strcmp>
ffffffff80005aca: e119 	bnez	a0, 0xffffffff80005ad0 <dtb_node_match_property+0x10a>
ffffffff80005acc: a009 	j	0xffffffff80005ace <dtb_node_match_property+0x108>
; 				return prop;
ffffffff80005ace: a035 	j	0xffffffff80005afa <dtb_node_match_property+0x134>
; 			continue;
ffffffff80005ad0: bf39 	j	0xffffffff800059ee <dtb_node_match_property+0x28>
; 		} else if (token == FDT_NOP) {
ffffffff80005ad2: fcc42503     	lw	a0, -0x34(s0)
ffffffff80005ad6: 4591 	li	a1, 0x4
ffffffff80005ad8: 00b51963     	bne	a0, a1, 0xffffffff80005aea <dtb_node_match_property+0x124>
ffffffff80005adc: a009 	j	0xffffffff80005ade <dtb_node_match_property+0x118>
; 			ptr += 1;
ffffffff80005ade: fc043503     	ld	a0, -0x40(s0)
ffffffff80005ae2: 0511 	addi	a0, a0, 0x4
ffffffff80005ae4: fca43023     	sd	a0, -0x40(s0)
; 			continue;
ffffffff80005ae8: b719 	j	0xffffffff800059ee <dtb_node_match_property+0x28>
; 			break;
ffffffff80005aea: a009 	j	0xffffffff80005aec <dtb_node_match_property+0x126>
ffffffff80005aec: fa843503     	ld	a0, -0x58(s0)
ffffffff80005af0: 4581 	li	a1, 0x0
ffffffff80005af2: 4661 	li	a2, 0x18
; 	memset(&prop, 0, sizeof(struct dtb_prop));
ffffffff80005af4: ce9fe0ef     	jal	0xffffffff800047dc <memset>
; 	return prop;
ffffffff80005af8: a009 	j	0xffffffff80005afa <dtb_node_match_property+0x134>
; }
ffffffff80005afa: 70a6 	ld	ra, 0x68(sp)
ffffffff80005afc: 7406 	ld	s0, 0x60(sp)
ffffffff80005afe: 6165 	addi	sp, sp, 0x70
ffffffff80005b00: 8082 	ret

ffffffff80005b02 <timer_read>:
; {
ffffffff80005b02: 1101 	addi	sp, sp, -0x20
ffffffff80005b04: ec06 	sd	ra, 0x18(sp)
ffffffff80005b06: e822 	sd	s0, 0x10(sp)
ffffffff80005b08: 1000 	addi	s0, sp, 0x20
; 	return csr_read(CSR_TIME);
ffffffff80005b0a: c0102573     	rdtime	a0
ffffffff80005b0e: fea43423     	sd	a0, -0x18(s0)
ffffffff80005b12: fe843503     	ld	a0, -0x18(s0)
ffffffff80005b16: fea43023     	sd	a0, -0x20(s0)
ffffffff80005b1a: fe043503     	ld	a0, -0x20(s0)
ffffffff80005b1e: 60e2 	ld	ra, 0x18(sp)
ffffffff80005b20: 6442 	ld	s0, 0x10(sp)
ffffffff80005b22: 6105 	addi	sp, sp, 0x20
ffffffff80005b24: 8082 	ret

ffffffff80005b26 <timer_irq_enable>:
; {
ffffffff80005b26: 1101 	addi	sp, sp, -0x20
ffffffff80005b28: ec06 	sd	ra, 0x18(sp)
ffffffff80005b2a: e822 	sd	s0, 0x10(sp)
ffffffff80005b2c: 1000 	addi	s0, sp, 0x20
ffffffff80005b2e: 4505 	li	a0, 0x1
; 	timer_set_alarm(1);
ffffffff80005b30: 01c000ef     	jal	0xffffffff80005b4c <timer_set_alarm>
ffffffff80005b34: 02000513     	li	a0, 0x20
; 	csr_set(CSR_SIE, CSR_SIE_STIE);
ffffffff80005b38: fea43423     	sd	a0, -0x18(s0)
ffffffff80005b3c: fe843503     	ld	a0, -0x18(s0)
ffffffff80005b40: 10452073     	csrs	sie, a0
; }
ffffffff80005b44: 60e2 	ld	ra, 0x18(sp)
ffffffff80005b46: 6442 	ld	s0, 0x10(sp)
ffffffff80005b48: 6105 	addi	sp, sp, 0x20
ffffffff80005b4a: 8082 	ret

ffffffff80005b4c <timer_set_alarm>:
; {
ffffffff80005b4c: 7179 	addi	sp, sp, -0x30
ffffffff80005b4e: f406 	sd	ra, 0x28(sp)
ffffffff80005b50: f022 	sd	s0, 0x20(sp)
ffffffff80005b52: 1800 	addi	s0, sp, 0x30
ffffffff80005b54: fea43423     	sd	a0, -0x18(s0)
; 	u64 now = timer_read();
ffffffff80005b58: fabff0ef     	jal	0xffffffff80005b02 <timer_read>
ffffffff80005b5c: fea43023     	sd	a0, -0x20(s0)
; 	u64 al = now + (TIMER_FREQ * secs);
ffffffff80005b60: fe043503     	ld	a0, -0x20(s0)
ffffffff80005b64: fe843583     	ld	a1, -0x18(s0)
ffffffff80005b68: 00989637     	lui	a2, 0x989
ffffffff80005b6c: 68060613     	addi	a2, a2, 0x680
ffffffff80005b70: 02c585b3     	mul	a1, a1, a2
ffffffff80005b74: 952e 	add	a0, a0, a1
ffffffff80005b76: fca43c23     	sd	a0, -0x28(s0)
; 	csr_write(CSR_STIMECMP, al);
ffffffff80005b7a: fd843503     	ld	a0, -0x28(s0)
ffffffff80005b7e: fca43823     	sd	a0, -0x30(s0)
ffffffff80005b82: fd043503     	ld	a0, -0x30(s0)
ffffffff80005b86: 14d51073     	csrw	stimecmp, a0
; }
ffffffff80005b8a: 70a2 	ld	ra, 0x28(sp)
ffffffff80005b8c: 7402 	ld	s0, 0x20(sp)
ffffffff80005b8e: 6145 	addi	sp, sp, 0x30
ffffffff80005b90: 8082 	ret

ffffffff80005b92 <timer_irq_disable>:
; {
ffffffff80005b92: 1101 	addi	sp, sp, -0x20
ffffffff80005b94: ec06 	sd	ra, 0x18(sp)
ffffffff80005b96: e822 	sd	s0, 0x10(sp)
ffffffff80005b98: 1000 	addi	s0, sp, 0x20
ffffffff80005b9a: 02000513     	li	a0, 0x20
; 	csr_clear(CSR_SIE, CSR_SIE_STIE);
ffffffff80005b9e: fea43423     	sd	a0, -0x18(s0)
ffffffff80005ba2: fe843503     	ld	a0, -0x18(s0)
ffffffff80005ba6: 10453073     	csrc	sie, a0
; }
ffffffff80005baa: 60e2 	ld	ra, 0x18(sp)
ffffffff80005bac: 6442 	ld	s0, 0x10(sp)
ffffffff80005bae: 6105 	addi	sp, sp, 0x20
ffffffff80005bb0: 8082 	ret

ffffffff80005bb2 <timer_irq>:
; {
ffffffff80005bb2: 1141 	addi	sp, sp, -0x10
ffffffff80005bb4: e406 	sd	ra, 0x8(sp)
ffffffff80005bb6: e022 	sd	s0, 0x0(sp)
ffffffff80005bb8: 0800 	addi	s0, sp, 0x10
ffffffff80005bba: 4505 	li	a0, 0x1
; 	timer_set_alarm(1);
ffffffff80005bbc: f91ff0ef     	jal	0xffffffff80005b4c <timer_set_alarm>
; }
ffffffff80005bc0: 60a2 	ld	ra, 0x8(sp)
ffffffff80005bc2: 6402 	ld	s0, 0x0(sp)
ffffffff80005bc4: 0141 	addi	sp, sp, 0x10
ffffffff80005bc6: 8082 	ret
		...

ffffffff80005bd0 <trap_entry>:
;     addi sp, sp, -256
ffffffff80005bd0: 7111 	addi	sp, sp, -0x100
;     sd a0, 0(sp)
ffffffff80005bd2: e02a 	sd	a0, 0x0(sp)
;     sd a1, 8(sp)
ffffffff80005bd4: e42e 	sd	a1, 0x8(sp)
;     sd a2, 16(sp)
ffffffff80005bd6: e832 	sd	a2, 0x10(sp)
;     sd a3, 24(sp)
ffffffff80005bd8: ec36 	sd	a3, 0x18(sp)
;     sd a4, 32(sp)
ffffffff80005bda: f03a 	sd	a4, 0x20(sp)
;     sd a5, 40(sp)
ffffffff80005bdc: f43e 	sd	a5, 0x28(sp)
;     sd a6, 48(sp)
ffffffff80005bde: f842 	sd	a6, 0x30(sp)
;     sd a7, 56(sp)
ffffffff80005be0: fc46 	sd	a7, 0x38(sp)
;     sd t0, 64(sp)
ffffffff80005be2: e096 	sd	t0, 0x40(sp)
;     sd t1, 72(sp)
ffffffff80005be4: e49a 	sd	t1, 0x48(sp)
;     sd t2, 80(sp)
ffffffff80005be6: e89e 	sd	t2, 0x50(sp)
;     sd t3, 88(sp)
ffffffff80005be8: ecf2 	sd	t3, 0x58(sp)
;     sd t4, 96(sp)
ffffffff80005bea: f0f6 	sd	t4, 0x60(sp)
;     sd t5, 104(sp)
ffffffff80005bec: f4fa 	sd	t5, 0x68(sp)
;     sd t6, 112(sp)
ffffffff80005bee: f8fe 	sd	t6, 0x70(sp)
;     sd s0, 120(sp)
ffffffff80005bf0: fca2 	sd	s0, 0x78(sp)
;     sd s1, 128(sp)
ffffffff80005bf2: e126 	sd	s1, 0x80(sp)
;     sd s2, 136(sp)
ffffffff80005bf4: e54a 	sd	s2, 0x88(sp)
;     sd s3, 144(sp)
ffffffff80005bf6: e94e 	sd	s3, 0x90(sp)
;     sd s4, 152(sp)
ffffffff80005bf8: ed52 	sd	s4, 0x98(sp)
;     sd s5, 160(sp)
ffffffff80005bfa: f156 	sd	s5, 0xa0(sp)
;     sd s6, 168(sp)
ffffffff80005bfc: f55a 	sd	s6, 0xa8(sp)
;     sd s7, 176(sp)
ffffffff80005bfe: f95e 	sd	s7, 0xb0(sp)
;     sd s8, 184(sp)
ffffffff80005c00: fd62 	sd	s8, 0xb8(sp)
;     sd s9, 192(sp)
ffffffff80005c02: e1e6 	sd	s9, 0xc0(sp)
;     sd s10, 200(sp)
ffffffff80005c04: e5ea 	sd	s10, 0xc8(sp)
;     sd s11, 208(sp)
ffffffff80005c06: e9ee 	sd	s11, 0xd0(sp)
;     sd tp, 216(sp)
ffffffff80005c08: ed92 	sd	tp, 0xd8(sp)
;     sd gp, 224(sp)
ffffffff80005c0a: f18e 	sd	gp, 0xe0(sp)
;     sd ra, 232(sp)
ffffffff80005c0c: f586 	sd	ra, 0xe8(sp)
;     call handle_trap
ffffffff80005c0e: 242000ef     	jal	0xffffffff80005e50 <handle_trap>
;     ld a0, 0(sp)
ffffffff80005c12: 6502 	ld	a0, 0x0(sp)
;     ld a1, 8(sp)
ffffffff80005c14: 65a2 	ld	a1, 0x8(sp)
;     ld a2, 16(sp)
ffffffff80005c16: 6642 	ld	a2, 0x10(sp)
;     ld a3, 24(sp)
ffffffff80005c18: 66e2 	ld	a3, 0x18(sp)
;     ld a4, 32(sp)
ffffffff80005c1a: 7702 	ld	a4, 0x20(sp)
;     ld a5, 40(sp)
ffffffff80005c1c: 77a2 	ld	a5, 0x28(sp)
;     ld a6, 48(sp)
ffffffff80005c1e: 7842 	ld	a6, 0x30(sp)
;     ld a7, 56(sp)
ffffffff80005c20: 78e2 	ld	a7, 0x38(sp)
;     ld t0, 64(sp)
ffffffff80005c22: 6286 	ld	t0, 0x40(sp)
;     ld t1, 72(sp)
ffffffff80005c24: 6326 	ld	t1, 0x48(sp)
;     ld t2, 80(sp)
ffffffff80005c26: 63c6 	ld	t2, 0x50(sp)
;     ld t3, 88(sp)
ffffffff80005c28: 6e66 	ld	t3, 0x58(sp)
;     ld t4, 96(sp)
ffffffff80005c2a: 7e86 	ld	t4, 0x60(sp)
;     ld t5, 104(sp)
ffffffff80005c2c: 7f26 	ld	t5, 0x68(sp)
;     ld t6, 112(sp)
ffffffff80005c2e: 7fc6 	ld	t6, 0x70(sp)
;     ld s0, 120(sp)
ffffffff80005c30: 7466 	ld	s0, 0x78(sp)
;     ld s1, 128(sp)
ffffffff80005c32: 648a 	ld	s1, 0x80(sp)
;     ld s2, 136(sp)
ffffffff80005c34: 692a 	ld	s2, 0x88(sp)
;     ld s3, 144(sp)
ffffffff80005c36: 69ca 	ld	s3, 0x90(sp)
;     ld s4, 152(sp)
ffffffff80005c38: 6a6a 	ld	s4, 0x98(sp)
;     ld s5, 160(sp)
ffffffff80005c3a: 7a8a 	ld	s5, 0xa0(sp)
;     ld s6, 168(sp)
ffffffff80005c3c: 7b2a 	ld	s6, 0xa8(sp)
;     ld s7, 176(sp)
ffffffff80005c3e: 7bca 	ld	s7, 0xb0(sp)
;     ld s8, 184(sp)
ffffffff80005c40: 7c6a 	ld	s8, 0xb8(sp)
;     ld s9, 192(sp)
ffffffff80005c42: 6c8e 	ld	s9, 0xc0(sp)
;     ld s10, 200(sp)
ffffffff80005c44: 6d2e 	ld	s10, 0xc8(sp)
;     ld s11, 208(sp)
ffffffff80005c46: 6dce 	ld	s11, 0xd0(sp)
;     ld tp, 216(sp)
ffffffff80005c48: 626e 	ld	tp, 0xd8(sp)
;     ld gp, 224(sp)
ffffffff80005c4a: 718e 	ld	gp, 0xe0(sp)
;     ld ra, 232(sp)
ffffffff80005c4c: 70ae 	ld	ra, 0xe8(sp)
;     addi sp, sp, 256
ffffffff80005c4e: 6111 	addi	sp, sp, 0x100
;     sret
ffffffff80005c50: 10200073     	sret

ffffffff80005c54 <handle_irq>:
; {
ffffffff80005c54: 7179 	addi	sp, sp, -0x30
ffffffff80005c56: f406 	sd	ra, 0x28(sp)
ffffffff80005c58: f022 	sd	s0, 0x20(sp)
ffffffff80005c5a: 1800 	addi	s0, sp, 0x30
; 	u64 sca = csr_read(CSR_SCAUSE);	
ffffffff80005c5c: 14202573     	csrr	a0, scause
ffffffff80005c60: fea43023     	sd	a0, -0x20(s0)
ffffffff80005c64: fe043503     	ld	a0, -0x20(s0)
ffffffff80005c68: fca43c23     	sd	a0, -0x28(s0)
ffffffff80005c6c: fd843503     	ld	a0, -0x28(s0)
ffffffff80005c70: fea43423     	sd	a0, -0x18(s0)
; 	if ((sca & TRAP_TIMER_IRQ) == TRAP_TIMER_IRQ){
ffffffff80005c74: fe843503     	ld	a0, -0x18(s0)
ffffffff80005c78: 55fd 	li	a1, -0x1
ffffffff80005c7a: 15fe 	slli	a1, a1, 0x3f
ffffffff80005c7c: 0595 	addi	a1, a1, 0x5
ffffffff80005c7e: 8d6d 	and	a0, a0, a1
ffffffff80005c80: 00b51663     	bne	a0, a1, 0xffffffff80005c8c <handle_irq+0x38>
ffffffff80005c84: a009 	j	0xffffffff80005c86 <handle_irq+0x32>
; 			timer_irq();
ffffffff80005c86: f2dff0ef     	jal	0xffffffff80005bb2 <timer_irq>
; 		}
ffffffff80005c8a: a0a1 	j	0xffffffff80005cd2 <handle_irq+0x7e>
; 		else if ((sca & TRAP_EXTERNAL_IRQ) == TRAP_EXTERNAL_IRQ) {
ffffffff80005c8c: fe843503     	ld	a0, -0x18(s0)
ffffffff80005c90: 55fd 	li	a1, -0x1
ffffffff80005c92: 15fe 	slli	a1, a1, 0x3f
ffffffff80005c94: 05a5 	addi	a1, a1, 0x9
ffffffff80005c96: 8d6d 	and	a0, a0, a1
ffffffff80005c98: 02b51c63     	bne	a0, a1, 0xffffffff80005cd0 <handle_irq+0x7c>
ffffffff80005c9c: a009 	j	0xffffffff80005c9e <handle_irq+0x4a>
ffffffff80005c9e: 4501 	li	a0, 0x0
; 			u32 irq_addr = plic_hart_claim_irq(0);
ffffffff80005ca0: 7bc000ef     	jal	0xffffffff8000645c <plic_hart_claim_irq>
ffffffff80005ca4: fca42a23     	sw	a0, -0x2c(s0)
; 			if (irq_addr == IRQ_SERIAL){
ffffffff80005ca8: fd442503     	lw	a0, -0x2c(s0)
ffffffff80005cac: 45a9 	li	a1, 0xa
ffffffff80005cae: 00b51663     	bne	a0, a1, 0xffffffff80005cba <handle_irq+0x66>
ffffffff80005cb2: a009 	j	0xffffffff80005cb4 <handle_irq+0x60>
; 				serial_irq();
ffffffff80005cb4: 3fc000ef     	jal	0xffffffff800060b0 <serial_irq>
; 			}
ffffffff80005cb8: a009 	j	0xffffffff80005cba <handle_irq+0x66>
; 			if (irq_addr){
ffffffff80005cba: fd442503     	lw	a0, -0x2c(s0)
ffffffff80005cbe: c901 	beqz	a0, 0xffffffff80005cce <handle_irq+0x7a>
ffffffff80005cc0: a009 	j	0xffffffff80005cc2 <handle_irq+0x6e>
; 				plic_hart_complete_irq(0, irq_addr);
ffffffff80005cc2: fd442583     	lw	a1, -0x2c(s0)
ffffffff80005cc6: 4501 	li	a0, 0x0
ffffffff80005cc8: 7e0000ef     	jal	0xffffffff800064a8 <plic_hart_complete_irq>
; 			}
ffffffff80005ccc: a009 	j	0xffffffff80005cce <handle_irq+0x7a>
; 			return;
ffffffff80005cce: a011 	j	0xffffffff80005cd2 <handle_irq+0x7e>
ffffffff80005cd0: a009 	j	0xffffffff80005cd2 <handle_irq+0x7e>
; }
ffffffff80005cd2: 70a2 	ld	ra, 0x28(sp)
ffffffff80005cd4: 7402 	ld	s0, 0x20(sp)
ffffffff80005cd6: 6145 	addi	sp, sp, 0x30
ffffffff80005cd8: 8082 	ret

ffffffff80005cda <handle_exception>:
; {
ffffffff80005cda: 7139 	addi	sp, sp, -0x40
ffffffff80005cdc: fc06 	sd	ra, 0x38(sp)
ffffffff80005cde: f822 	sd	s0, 0x30(sp)
ffffffff80005ce0: 0080 	addi	s0, sp, 0x40
; 	u64 sca = csr_read(CSR_SCAUSE);
ffffffff80005ce2: 14202573     	csrr	a0, scause
ffffffff80005ce6: fea43023     	sd	a0, -0x20(s0)
ffffffff80005cea: fe043503     	ld	a0, -0x20(s0)
ffffffff80005cee: fca43c23     	sd	a0, -0x28(s0)
ffffffff80005cf2: fd843503     	ld	a0, -0x28(s0)
ffffffff80005cf6: fea43423     	sd	a0, -0x18(s0)
; 	u64 ex_cause = sca & 0xfffUL;
ffffffff80005cfa: fe843503     	ld	a0, -0x18(s0)
ffffffff80005cfe: 1552 	slli	a0, a0, 0x34
ffffffff80005d00: 9151 	srli	a0, a0, 0x34
ffffffff80005d02: fca43823     	sd	a0, -0x30(s0)
; 	switch (ex_cause){
ffffffff80005d06: fd043503     	ld	a0, -0x30(s0)
ffffffff80005d0a: fff50593     	addi	a1, a0, -0x1
ffffffff80005d0e: fcb43423     	sd	a1, -0x38(s0)
ffffffff80005d12: 4539 	li	a0, 0xe
ffffffff80005d14: 06b56d63     	bltu	a0, a1, 0xffffffff80005d8e <handle_exception+0xb4>
ffffffff80005d18: fc843503     	ld	a0, -0x38(s0)
; 	switch (ex_cause){
ffffffff80005d1c: 00351593     	slli	a1, a0, 0x3
ffffffff80005d20: 0004c517     	auipc	a0, 0x4c
ffffffff80005d24: 48850513     	addi	a0, a0, 0x488
ffffffff80005d28: 952e 	add	a0, a0, a1
ffffffff80005d2a: 6108 	ld	a0, 0x0(a0)
ffffffff80005d2c: 8502 	jr	a0
; 			error("Exception: instrução tentou acessar um endereço inválido\n");
ffffffff80005d2e: 0004d517     	auipc	a0, 0x4d
ffffffff80005d32: e4f50593     	addi	a1, a0, -0x1b1
ffffffff80005d36: 4505 	li	a0, 0x1
ffffffff80005d38: ee2fd0ef     	jal	0xffffffff8000341a <printk>
; 			break;
ffffffff80005d3c: a055 	j	0xffffffff80005de0 <handle_exception+0x106>
; 			error("Exception: carregamento de um endereço inválido\n");
ffffffff80005d3e: 0004c517     	auipc	a0, 0x4c
ffffffff80005d42: 7ab50593     	addi	a1, a0, 0x7ab
ffffffff80005d46: 4505 	li	a0, 0x1
ffffffff80005d48: ed2fd0ef     	jal	0xffffffff8000341a <printk>
; 			break;
ffffffff80005d4c: a851 	j	0xffffffff80005de0 <handle_exception+0x106>
; 			error("Exception: store em um endereço inválido\n");
ffffffff80005d4e: 0004d517     	auipc	a0, 0x4d
ffffffff80005d52: 1c250593     	addi	a1, a0, 0x1c2
ffffffff80005d56: 4505 	li	a0, 0x1
ffffffff80005d58: ec2fd0ef     	jal	0xffffffff8000341a <printk>
; 			break;
ffffffff80005d5c: a051 	j	0xffffffff80005de0 <handle_exception+0x106>
; 			error("Exception: instrução tentou acessar um espaço inválido na ram\n");
ffffffff80005d5e: 0004d517     	auipc	a0, 0x4d
ffffffff80005d62: 0b050593     	addi	a1, a0, 0xb0
ffffffff80005d66: 4505 	li	a0, 0x1
ffffffff80005d68: eb2fd0ef     	jal	0xffffffff8000341a <printk>
; 			break;
ffffffff80005d6c: a895 	j	0xffffffff80005de0 <handle_exception+0x106>
; 			error("Exception: carregamento de um espaço inválido da ram\n");
ffffffff80005d6e: 0004d517     	auipc	a0, 0x4d
ffffffff80005d72: e8a50593     	addi	a1, a0, -0x176
ffffffff80005d76: 4505 	li	a0, 0x1
ffffffff80005d78: ea2fd0ef     	jal	0xffffffff8000341a <printk>
; 			break;
ffffffff80005d7c: a095 	j	0xffffffff80005de0 <handle_exception+0x106>
; 			error("Exception: store em um espaço inválido na ram\n");
ffffffff80005d7e: 0004c517     	auipc	a0, 0x4c
ffffffff80005d82: 68350593     	addi	a1, a0, 0x683
ffffffff80005d86: 4505 	li	a0, 0x1
ffffffff80005d88: e92fd0ef     	jal	0xffffffff8000341a <printk>
; 			break;
ffffffff80005d8c: a891 	j	0xffffffff80005de0 <handle_exception+0x106>
; 			BUG();
ffffffff80005d8e: a009 	j	0xffffffff80005d90 <handle_exception+0xb6>
ffffffff80005d90: fd3fe0ef     	jal	0xffffffff80004d62 <bug_get_behavior>
ffffffff80005d94: e115 	bnez	a0, 0xffffffff80005db8 <handle_exception+0xde>
ffffffff80005d96: a009 	j	0xffffffff80005d98 <handle_exception+0xbe>
ffffffff80005d98: 0004d517     	auipc	a0, 0x4d
ffffffff80005d9c: 1a450513     	addi	a0, a0, 0x1a4
ffffffff80005da0: 0004c597     	auipc	a1, 0x4c
ffffffff80005da4: 56b58593     	addi	a1, a1, 0x56b
ffffffff80005da8: 0004d617     	auipc	a2, 0x4d
ffffffff80005dac: 8d660613     	addi	a2, a2, -0x72a
ffffffff80005db0: 03d00693     	li	a3, 0x3d
ffffffff80005db4: f2ffe0ef     	jal	0xffffffff80004ce2 <panic>
ffffffff80005db8: 0004d517     	auipc	a0, 0x4d
ffffffff80005dbc: 18450593     	addi	a1, a0, 0x184
ffffffff80005dc0: 0004c517     	auipc	a0, 0x4c
ffffffff80005dc4: 54b50613     	addi	a2, a0, 0x54b
ffffffff80005dc8: 0004d517     	auipc	a0, 0x4d
ffffffff80005dcc: 8b650693     	addi	a3, a0, -0x74a
ffffffff80005dd0: 4501 	li	a0, 0x0
ffffffff80005dd2: 03d00713     	li	a4, 0x3d
ffffffff80005dd6: e44fd0ef     	jal	0xffffffff8000341a <printk>
ffffffff80005dda: a009 	j	0xffffffff80005ddc <handle_exception+0x102>
ffffffff80005ddc: a009 	j	0xffffffff80005dde <handle_exception+0x104>
; 			break;
ffffffff80005dde: a009 	j	0xffffffff80005de0 <handle_exception+0x106>
; 	return;
ffffffff80005de0: 70e2 	ld	ra, 0x38(sp)
ffffffff80005de2: 7442 	ld	s0, 0x30(sp)
ffffffff80005de4: 6121 	addi	sp, sp, 0x40
ffffffff80005de6: 8082 	ret

ffffffff80005de8 <trap_setup>:
; {
ffffffff80005de8: 7139 	addi	sp, sp, -0x40
ffffffff80005dea: fc06 	sd	ra, 0x38(sp)
ffffffff80005dec: f822 	sd	s0, 0x30(sp)
ffffffff80005dee: 0080 	addi	s0, sp, 0x40
ffffffff80005df0: 4589 	li	a1, 0x2
ffffffff80005df2: fcb43823     	sd	a1, -0x30(s0)
; 	csr_clear(CSR_SSTATUS, CSR_SSTATUS_SIE);
ffffffff80005df6: feb43423     	sd	a1, -0x18(s0)
ffffffff80005dfa: fe843503     	ld	a0, -0x18(s0)
ffffffff80005dfe: 10053073     	csrc	sstatus, a0
; 	csr_write(CSR_STVEC, trap_entry);
ffffffff80005e02: 00000517     	auipc	a0, 0x0
ffffffff80005e06: dce50513     	addi	a0, a0, -0x232
ffffffff80005e0a: fea43023     	sd	a0, -0x20(s0)
ffffffff80005e0e: fe043503     	ld	a0, -0x20(s0)
ffffffff80005e12: 10551073     	csrw	stvec, a0
ffffffff80005e16: 4529 	li	a0, 0xa
ffffffff80005e18: fca43423     	sd	a0, -0x38(s0)
; 	plic_irq_set_priority(IRQ_SERIAL, 2);
ffffffff80005e1c: 536000ef     	jal	0xffffffff80006352 <plic_irq_set_priority>
ffffffff80005e20: 4581 	li	a1, 0x0
ffffffff80005e22: fcb43023     	sd	a1, -0x40(s0)
; 	plic_hart_set_threshold(0, 0);
ffffffff80005e26: 852e 	mv	a0, a1
ffffffff80005e28: 5ca000ef     	jal	0xffffffff800063f2 <plic_hart_set_threshold>
ffffffff80005e2c: fc043503     	ld	a0, -0x40(s0)
ffffffff80005e30: fc843583     	ld	a1, -0x38(s0)
; 	plic_hart_enable_irq(0, IRQ_SERIAL);
ffffffff80005e34: 55c000ef     	jal	0xffffffff80006390 <plic_hart_enable_irq>
ffffffff80005e38: fd043503     	ld	a0, -0x30(s0)
; 	csr_set(CSR_SSTATUS, CSR_SSTATUS_SIE);
ffffffff80005e3c: fca43c23     	sd	a0, -0x28(s0)
ffffffff80005e40: fd843503     	ld	a0, -0x28(s0)
ffffffff80005e44: 10052073     	csrs	sstatus, a0
; }
ffffffff80005e48: 70e2 	ld	ra, 0x38(sp)
ffffffff80005e4a: 7442 	ld	s0, 0x30(sp)
ffffffff80005e4c: 6121 	addi	sp, sp, 0x40
ffffffff80005e4e: 8082 	ret

ffffffff80005e50 <handle_trap>:
; {
ffffffff80005e50: 7179 	addi	sp, sp, -0x30
ffffffff80005e52: f406 	sd	ra, 0x28(sp)
ffffffff80005e54: f022 	sd	s0, 0x20(sp)
ffffffff80005e56: 1800 	addi	s0, sp, 0x30
; 	u64 sca = csr_read(CSR_SCAUSE);
ffffffff80005e58: 14202573     	csrr	a0, scause
ffffffff80005e5c: fea43023     	sd	a0, -0x20(s0)
ffffffff80005e60: fe043503     	ld	a0, -0x20(s0)
ffffffff80005e64: fca43c23     	sd	a0, -0x28(s0)
ffffffff80005e68: fd843503     	ld	a0, -0x28(s0)
ffffffff80005e6c: fea43423     	sd	a0, -0x18(s0)
; 	u64 type = sca & TRAP_IRQ_BIT;
ffffffff80005e70: fe843503     	ld	a0, -0x18(s0)
ffffffff80005e74: 917d 	srli	a0, a0, 0x3f
ffffffff80005e76: 157e 	slli	a0, a0, 0x3f
ffffffff80005e78: fca43823     	sd	a0, -0x30(s0)
; 	if (type == 0){
ffffffff80005e7c: fd043503     	ld	a0, -0x30(s0)
ffffffff80005e80: e509 	bnez	a0, 0xffffffff80005e8a <handle_trap+0x3a>
ffffffff80005e82: a009 	j	0xffffffff80005e84 <handle_trap+0x34>
; 		handle_exception();
ffffffff80005e84: e57ff0ef     	jal	0xffffffff80005cda <handle_exception>
; 	} else {
ffffffff80005e88: a021 	j	0xffffffff80005e90 <handle_trap+0x40>
; 		handle_irq();
ffffffff80005e8a: dcbff0ef     	jal	0xffffffff80005c54 <handle_irq>
ffffffff80005e8e: a009 	j	0xffffffff80005e90 <handle_trap+0x40>
; }
ffffffff80005e90: 70a2 	ld	ra, 0x28(sp)
ffffffff80005e92: 7402 	ld	s0, 0x20(sp)
ffffffff80005e94: 6145 	addi	sp, sp, 0x30
ffffffff80005e96: 8082 	ret

ffffffff80005e98 <hart_irq_enable>:
; {
ffffffff80005e98: 1101 	addi	sp, sp, -0x20
ffffffff80005e9a: ec06 	sd	ra, 0x18(sp)
ffffffff80005e9c: e822 	sd	s0, 0x10(sp)
ffffffff80005e9e: 1000 	addi	s0, sp, 0x20
ffffffff80005ea0: 4509 	li	a0, 0x2
; 	csr_set(CSR_SSTATUS, CSR_SSTATUS_SIE);
ffffffff80005ea2: fea43423     	sd	a0, -0x18(s0)
ffffffff80005ea6: fe843503     	ld	a0, -0x18(s0)
ffffffff80005eaa: 10052073     	csrs	sstatus, a0
; }
ffffffff80005eae: 60e2 	ld	ra, 0x18(sp)
ffffffff80005eb0: 6442 	ld	s0, 0x10(sp)
ffffffff80005eb2: 6105 	addi	sp, sp, 0x20
ffffffff80005eb4: 8082 	ret

ffffffff80005eb6 <hart_irq_save>:
; {
ffffffff80005eb6: 7179 	addi	sp, sp, -0x30
ffffffff80005eb8: f406 	sd	ra, 0x28(sp)
ffffffff80005eba: f022 	sd	s0, 0x20(sp)
ffffffff80005ebc: 1800 	addi	s0, sp, 0x30
; 	u64 ssval = csr_read(CSR_SSTATUS);
ffffffff80005ebe: 10002573     	csrr	a0, sstatus
ffffffff80005ec2: fea43023     	sd	a0, -0x20(s0)
ffffffff80005ec6: fe043503     	ld	a0, -0x20(s0)
ffffffff80005eca: fca43c23     	sd	a0, -0x28(s0)
ffffffff80005ece: fd843503     	ld	a0, -0x28(s0)
ffffffff80005ed2: fea43423     	sd	a0, -0x18(s0)
; 	u64 state = ssval & CSR_SSTATUS_SIE;
ffffffff80005ed6: fe843503     	ld	a0, -0x18(s0)
ffffffff80005eda: 8909 	andi	a0, a0, 0x2
ffffffff80005edc: fca43823     	sd	a0, -0x30(s0)
; 	hart_irq_disable();
ffffffff80005ee0: 038000ef     	jal	0xffffffff80005f18 <hart_irq_disable>
; 	return state;
ffffffff80005ee4: fd043503     	ld	a0, -0x30(s0)
ffffffff80005ee8: 70a2 	ld	ra, 0x28(sp)
ffffffff80005eea: 7402 	ld	s0, 0x20(sp)
ffffffff80005eec: 6145 	addi	sp, sp, 0x30
ffffffff80005eee: 8082 	ret

ffffffff80005ef0 <hart_irq_restore>:
; {
ffffffff80005ef0: 1101 	addi	sp, sp, -0x20
ffffffff80005ef2: ec06 	sd	ra, 0x18(sp)
ffffffff80005ef4: e822 	sd	s0, 0x10(sp)
ffffffff80005ef6: 1000 	addi	s0, sp, 0x20
ffffffff80005ef8: fea43423     	sd	a0, -0x18(s0)
; 	if (flags){
ffffffff80005efc: fe843503     	ld	a0, -0x18(s0)
ffffffff80005f00: c509 	beqz	a0, 0xffffffff80005f0a <hart_irq_restore+0x1a>
ffffffff80005f02: a009 	j	0xffffffff80005f04 <hart_irq_restore+0x14>
; 		hart_irq_enable();
ffffffff80005f04: f95ff0ef     	jal	0xffffffff80005e98 <hart_irq_enable>
; 	}
ffffffff80005f08: a021 	j	0xffffffff80005f10 <hart_irq_restore+0x20>
; 		hart_irq_disable();
ffffffff80005f0a: 00e000ef     	jal	0xffffffff80005f18 <hart_irq_disable>
ffffffff80005f0e: a009 	j	0xffffffff80005f10 <hart_irq_restore+0x20>
; }
ffffffff80005f10: 60e2 	ld	ra, 0x18(sp)
ffffffff80005f12: 6442 	ld	s0, 0x10(sp)
ffffffff80005f14: 6105 	addi	sp, sp, 0x20
ffffffff80005f16: 8082 	ret

ffffffff80005f18 <hart_irq_disable>:
; {
ffffffff80005f18: 1101 	addi	sp, sp, -0x20
ffffffff80005f1a: ec06 	sd	ra, 0x18(sp)
ffffffff80005f1c: e822 	sd	s0, 0x10(sp)
ffffffff80005f1e: 1000 	addi	s0, sp, 0x20
ffffffff80005f20: 4509 	li	a0, 0x2
; 	csr_clear(CSR_SSTATUS, CSR_SSTATUS_SIE);
ffffffff80005f22: fea43423     	sd	a0, -0x18(s0)
ffffffff80005f26: fe843503     	ld	a0, -0x18(s0)
ffffffff80005f2a: 10053073     	csrc	sstatus, a0
; }
ffffffff80005f2e: 60e2 	ld	ra, 0x18(sp)
ffffffff80005f30: 6442 	ld	s0, 0x10(sp)
ffffffff80005f32: 6105 	addi	sp, sp, 0x20
ffffffff80005f34: 8082 	ret

ffffffff80005f36 <serial_init>:
; {
ffffffff80005f36: 7159 	addi	sp, sp, -0x70
ffffffff80005f38: f486 	sd	ra, 0x68(sp)
ffffffff80005f3a: f0a2 	sd	s0, 0x60(sp)
ffffffff80005f3c: 1880 	addi	s0, sp, 0x70
ffffffff80005f3e: 4501 	li	a0, 0x0
ffffffff80005f40: fea403a3     	sb	a0, -0x19(s0)
ffffffff80005f44: 10000637     	lui	a2, 0x10000
ffffffff80005f48: 00160593     	addi	a1, a2, 0x1
ffffffff80005f4c: fcb43c23     	sd	a1, -0x28(s0)
; 	*(volatile u8 *)addr = val;
ffffffff80005f50: fe744683     	lbu	a3, -0x19(s0)
ffffffff80005f54: fd843703     	ld	a4, -0x28(s0)
ffffffff80005f58: 00d70023     	sb	a3, 0x0(a4)
ffffffff80005f5c: 468d 	li	a3, 0x3
ffffffff80005f5e: fcd40ba3     	sb	a3, -0x29(s0)
ffffffff80005f62: 00360693     	addi	a3, a2, 0x3
ffffffff80005f66: fcd43423     	sd	a3, -0x38(s0)
ffffffff80005f6a: fd744683     	lbu	a3, -0x29(s0)
ffffffff80005f6e: fc843703     	ld	a4, -0x38(s0)
ffffffff80005f72: 00d70023     	sb	a3, 0x0(a4)
ffffffff80005f76: 469d 	li	a3, 0x7
ffffffff80005f78: fcd403a3     	sb	a3, -0x39(s0)
ffffffff80005f7c: 00260693     	addi	a3, a2, 0x2
ffffffff80005f80: fad43c23     	sd	a3, -0x48(s0)
ffffffff80005f84: fc744683     	lbu	a3, -0x39(s0)
ffffffff80005f88: fb843703     	ld	a4, -0x48(s0)
ffffffff80005f8c: 00d70023     	sb	a3, 0x0(a4)
ffffffff80005f90: 46a1 	li	a3, 0x8
ffffffff80005f92: fad40ba3     	sb	a3, -0x49(s0)
ffffffff80005f96: 0611 	addi	a2, a2, 0x4
ffffffff80005f98: fac43423     	sd	a2, -0x58(s0)
ffffffff80005f9c: fb744603     	lbu	a2, -0x49(s0)
ffffffff80005fa0: fa843683     	ld	a3, -0x58(s0)
ffffffff80005fa4: 00c68023     	sb	a2, 0x0(a3)
ffffffff80005fa8: 4615 	li	a2, 0x5
ffffffff80005faa: fac403a3     	sb	a2, -0x59(s0)
ffffffff80005fae: f8b43c23     	sd	a1, -0x68(s0)
ffffffff80005fb2: fa744583     	lbu	a1, -0x59(s0)
ffffffff80005fb6: f9843603     	ld	a2, -0x68(s0)
ffffffff80005fba: 00b60023     	sb	a1, 0x0(a2)
ffffffff80005fbe: 00042597     	auipc	a1, 0x42
ffffffff80005fc2: 11258593     	addi	a1, a1, 0x112
ffffffff80005fc6: feb43423     	sd	a1, -0x18(s0)
; 	s->lock = 0;
ffffffff80005fca: fe843583     	ld	a1, -0x18(s0)
ffffffff80005fce: c188 	sw	a0, 0x0(a1)
; }
ffffffff80005fd0: 70a6 	ld	ra, 0x68(sp)
ffffffff80005fd2: 7406 	ld	s0, 0x60(sp)
ffffffff80005fd4: 6165 	addi	sp, sp, 0x70
ffffffff80005fd6: 8082 	ret

ffffffff80005fd8 <lida_com_LSR>:
; void lida_com_LSR(u8 val){
ffffffff80005fd8: 1101 	addi	sp, sp, -0x20
ffffffff80005fda: ec06 	sd	ra, 0x18(sp)
ffffffff80005fdc: e822 	sd	s0, 0x10(sp)
ffffffff80005fde: 1000 	addi	s0, sp, 0x20
ffffffff80005fe0: fea407a3     	sb	a0, -0x11(s0)
; 	if (val & SERIAL_LSR_OE){
ffffffff80005fe4: fef44503     	lbu	a0, -0x11(s0)
ffffffff80005fe8: 8909 	andi	a0, a0, 0x2
ffffffff80005fea: c911 	beqz	a0, 0xffffffff80005ffe <lida_com_LSR+0x26>
ffffffff80005fec: a009 	j	0xffffffff80005fee <lida_com_LSR+0x16>
; 		trace("Serial: OE - char não lido pela CPU foi sobrescrito\n");
ffffffff80005fee: 0004c517     	auipc	a0, 0x4c
ffffffff80005ff2: 70050593     	addi	a1, a0, 0x700
ffffffff80005ff6: 4515 	li	a0, 0x5
ffffffff80005ff8: c22fd0ef     	jal	0xffffffff8000341a <printk>
; 	}
ffffffff80005ffc: a009 	j	0xffffffff80005ffe <lida_com_LSR+0x26>
; 	if (val & SERIAL_LSR_PE){
ffffffff80005ffe: fef44503     	lbu	a0, -0x11(s0)
ffffffff80006002: 8911 	andi	a0, a0, 0x4
ffffffff80006004: c911 	beqz	a0, 0xffffffff80006018 <lida_com_LSR+0x40>
ffffffff80006006: a009 	j	0xffffffff80006008 <lida_com_LSR+0x30>
; 		trace("Serial: PE - erro de paridade\n");
ffffffff80006008: 0004d517     	auipc	a0, 0x4d
ffffffff8000600c: c2850593     	addi	a1, a0, -0x3d8
ffffffff80006010: 4515 	li	a0, 0x5
ffffffff80006012: c08fd0ef     	jal	0xffffffff8000341a <printk>
; 	}
ffffffff80006016: a009 	j	0xffffffff80006018 <lida_com_LSR+0x40>
; 	if (val & SERIAL_LSR_FE){
ffffffff80006018: fef44503     	lbu	a0, -0x11(s0)
ffffffff8000601c: 8921 	andi	a0, a0, 0x8
ffffffff8000601e: c911 	beqz	a0, 0xffffffff80006032 <lida_com_LSR+0x5a>
ffffffff80006020: a009 	j	0xffffffff80006022 <lida_com_LSR+0x4a>
; 		trace("Serial: FE - bit de parada inválido\n");
ffffffff80006022: 0004d517     	auipc	a0, 0x4d
ffffffff80006026: d6d50593     	addi	a1, a0, -0x293
ffffffff8000602a: 4515 	li	a0, 0x5
ffffffff8000602c: beefd0ef     	jal	0xffffffff8000341a <printk>
; 	}
ffffffff80006030: a009 	j	0xffffffff80006032 <lida_com_LSR+0x5a>
; 	if (val & SERIAL_LSR_BI){
ffffffff80006032: fef44503     	lbu	a0, -0x11(s0)
ffffffff80006036: 8941 	andi	a0, a0, 0x10
ffffffff80006038: c911 	beqz	a0, 0xffffffff8000604c <lida_com_LSR+0x74>
ffffffff8000603a: a009 	j	0xffffffff8000603c <lida_com_LSR+0x64>
; 		trace("Serial: BI - dados segurados em spacing por mais tempo do que deveriam\n");
ffffffff8000603c: 0004c517     	auipc	a0, 0x4c
ffffffff80006040: 5e850593     	addi	a1, a0, 0x5e8
ffffffff80006044: 4515 	li	a0, 0x5
ffffffff80006046: bd4fd0ef     	jal	0xffffffff8000341a <printk>
; 	}
ffffffff8000604a: a009 	j	0xffffffff8000604c <lida_com_LSR+0x74>
; 	if (val & SERIAL_LSR_RXERR){
ffffffff8000604c: fef44503     	lbu	a0, -0x11(s0)
ffffffff80006050: 08057513     	andi	a0, a0, 0x80
ffffffff80006054: c911 	beqz	a0, 0xffffffff80006068 <lida_com_LSR+0x90>
ffffffff80006056: a009 	j	0xffffffff80006058 <lida_com_LSR+0x80>
; 		trace("Serial: ocorreu algum(ns) destes erros, PE, FE e BI\n");
ffffffff80006058: 0004c517     	auipc	a0, 0x4c
ffffffff8000605c: 3da50593     	addi	a1, a0, 0x3da
ffffffff80006060: 4515 	li	a0, 0x5
ffffffff80006062: bb8fd0ef     	jal	0xffffffff8000341a <printk>
; 	}
ffffffff80006066: a009 	j	0xffffffff80006068 <lida_com_LSR+0x90>
; }
ffffffff80006068: 60e2 	ld	ra, 0x18(sp)
ffffffff8000606a: 6442 	ld	s0, 0x10(sp)
ffffffff8000606c: 6105 	addi	sp, sp, 0x20
ffffffff8000606e: 8082 	ret

ffffffff80006070 <serial_irq_enable>:
; {
ffffffff80006070: 1101 	addi	sp, sp, -0x20
ffffffff80006072: ec06 	sd	ra, 0x18(sp)
ffffffff80006074: e822 	sd	s0, 0x10(sp)
ffffffff80006076: 1000 	addi	s0, sp, 0x20
ffffffff80006078: 20000513     	li	a0, 0x200
; 	csr_set(CSR_SIE, CSR_SIE_SEIE);
ffffffff8000607c: fea43423     	sd	a0, -0x18(s0)
ffffffff80006080: fe843503     	ld	a0, -0x18(s0)
ffffffff80006084: 10452073     	csrs	sie, a0
; }
ffffffff80006088: 60e2 	ld	ra, 0x18(sp)
ffffffff8000608a: 6442 	ld	s0, 0x10(sp)
ffffffff8000608c: 6105 	addi	sp, sp, 0x20
ffffffff8000608e: 8082 	ret

ffffffff80006090 <serial_irq_disable>:
; {
ffffffff80006090: 1101 	addi	sp, sp, -0x20
ffffffff80006092: ec06 	sd	ra, 0x18(sp)
ffffffff80006094: e822 	sd	s0, 0x10(sp)
ffffffff80006096: 1000 	addi	s0, sp, 0x20
ffffffff80006098: 20000513     	li	a0, 0x200
; 	csr_clear(CSR_SIE, CSR_SIE_SEIE);
ffffffff8000609c: fea43423     	sd	a0, -0x18(s0)
ffffffff800060a0: fe843503     	ld	a0, -0x18(s0)
ffffffff800060a4: 10453073     	csrc	sie, a0
; }
ffffffff800060a8: 60e2 	ld	ra, 0x18(sp)
ffffffff800060aa: 6442 	ld	s0, 0x10(sp)
ffffffff800060ac: 6105 	addi	sp, sp, 0x20
ffffffff800060ae: 8082 	ret

ffffffff800060b0 <serial_irq>:
; {
ffffffff800060b0: 7159 	addi	sp, sp, -0x70
ffffffff800060b2: f486 	sd	ra, 0x68(sp)
ffffffff800060b4: f0a2 	sd	s0, 0x60(sp)
ffffffff800060b6: 1880 	addi	s0, sp, 0x70
ffffffff800060b8: 10000537     	lui	a0, 0x10000
ffffffff800060bc: 0509 	addi	a0, a0, 0x2
ffffffff800060be: fca43423     	sd	a0, -0x38(s0)
; 	return *(volatile u8 *)addr;
ffffffff800060c2: fc843503     	ld	a0, -0x38(s0)
ffffffff800060c6: 00054503     	lbu	a0, 0x0(a0)
; 	u8 iir_val = ioread8((SERIAL_BASE + SERIAL_IIR));
ffffffff800060ca: faa403a3     	sb	a0, -0x59(s0)
; 	if (!(iir_val & SERIAL_IIR_PENDING)) {
ffffffff800060ce: fa744503     	lbu	a0, -0x59(s0)
ffffffff800060d2: 8905 	andi	a0, a0, 0x1
ffffffff800060d4: 10051563     	bnez	a0, 0xffffffff800061de <serial_irq+0x12e>
ffffffff800060d8: a009 	j	0xffffffff800060da <serial_irq+0x2a>
; 		u8 id = (iir_val & SERIAL_IIR_ID_MASK) >> SERIAL_IIR_ID_SHIFT;
ffffffff800060da: fa744503     	lbu	a0, -0x59(s0)
ffffffff800060de: 1572 	slli	a0, a0, 0x3c
ffffffff800060e0: 9175 	srli	a0, a0, 0x3d
ffffffff800060e2: faa40323     	sb	a0, -0x5a(s0)
; 		switch (id){
ffffffff800060e6: fa644583     	lbu	a1, -0x5a(s0)
ffffffff800060ea: f8b43c23     	sd	a1, -0x68(s0)
ffffffff800060ee: 4519 	li	a0, 0x6
ffffffff800060f0: 0eb56663     	bltu	a0, a1, 0xffffffff800061dc <serial_irq+0x12c>
ffffffff800060f4: f9843503     	ld	a0, -0x68(s0)
; 		switch (id){
ffffffff800060f8: 00351593     	slli	a1, a0, 0x3
ffffffff800060fc: 0004c517     	auipc	a0, 0x4c
ffffffff80006100: 12450513     	addi	a0, a0, 0x124
ffffffff80006104: 952e 	add	a0, a0, a1
ffffffff80006106: 6108 	ld	a0, 0x0(a0)
ffffffff80006108: 8502 	jr	a0
ffffffff8000610a: 10000537     	lui	a0, 0x10000
ffffffff8000610e: 0519 	addi	a0, a0, 0x6
ffffffff80006110: fca43023     	sd	a0, -0x40(s0)
; 	return *(volatile u8 *)addr;
ffffffff80006114: fc043503     	ld	a0, -0x40(s0)
ffffffff80006118: 00054503     	lbu	a0, 0x0(a0)
; 				break;
ffffffff8000611c: a0c1 	j	0xffffffff800061dc <serial_irq+0x12c>
; 				break; //o iir já foi lido
ffffffff8000611e: a87d 	j	0xffffffff800061dc <serial_irq+0x12c>
ffffffff80006120: 00042517     	auipc	a0, 0x42
ffffffff80006124: fb050513     	addi	a0, a0, -0x50
ffffffff80006128: fca43823     	sd	a0, -0x30(s0)
; 	while (!spin_trylock(s)) {}
ffffffff8000612c: a009 	j	0xffffffff8000612e <serial_irq+0x7e>
ffffffff8000612e: fd043503     	ld	a0, -0x30(s0)
ffffffff80006132: fea43423     	sd	a0, -0x18(s0)
; 	__asm__ __volatile__("amoswap.w.aq %0, %2, %1" : "=r" (val), "+A" (s->lock) : "r" (1) : "memory");
ffffffff80006136: fe843503     	ld	a0, -0x18(s0)
ffffffff8000613a: 4585 	li	a1, 0x1
ffffffff8000613c: 0cb5252f     	amoswap.w.aq	a0, a1, (a0)
ffffffff80006140: fea42223     	sw	a0, -0x1c(s0)
; 	return !val;
ffffffff80006144: fe442503     	lw	a0, -0x1c(s0)
; 	while (!spin_trylock(s)) {}
ffffffff80006148: c119 	beqz	a0, 0xffffffff8000614e <serial_irq+0x9e>
ffffffff8000614a: a009 	j	0xffffffff8000614c <serial_irq+0x9c>
ffffffff8000614c: b7cd 	j	0xffffffff8000612e <serial_irq+0x7e>
ffffffff8000614e: 10000537     	lui	a0, 0x10000
ffffffff80006152: faa43c23     	sd	a0, -0x48(s0)
; 	return *(volatile u8 *)addr;
ffffffff80006156: fb843503     	ld	a0, -0x48(s0)
ffffffff8000615a: 00054503     	lbu	a0, 0x0(a0)
; 				char c = ioread8((SERIAL_BASE + SERIAL_RBR));
ffffffff8000615e: faa402a3     	sb	a0, -0x5b(s0)
; 				if (nbuf.len >= INTERN_BUF_SIZE - 1){
ffffffff80006162: 00042517     	auipc	a0, 0x42
ffffffff80006166: f2650513     	addi	a0, a0, -0xda
ffffffff8000616a: 6128 	ld	a0, 0x40(a0)
ffffffff8000616c: 03f00593     	li	a1, 0x3f
ffffffff80006170: 00b56463     	bltu	a0, a1, 0xffffffff80006178 <serial_irq+0xc8>
ffffffff80006174: a009 	j	0xffffffff80006176 <serial_irq+0xc6>
; 					return;
ffffffff80006176: a0ad 	j	0xffffffff800061e0 <serial_irq+0x130>
; 					nbuf.buffer[nbuf.len] = c;
ffffffff80006178: fa544503     	lbu	a0, -0x5b(s0)
ffffffff8000617c: 00042597     	auipc	a1, 0x42
ffffffff80006180: f0c58593     	addi	a1, a1, -0xf4
ffffffff80006184: 61b0 	ld	a2, 0x40(a1)
ffffffff80006186: 962e 	add	a2, a2, a1
ffffffff80006188: 00a60023     	sb	a0, 0x0(a2)
; 					nbuf.len++;	
ffffffff8000618c: 61a8 	ld	a0, 0x40(a1)
ffffffff8000618e: 0505 	addi	a0, a0, 0x1
ffffffff80006190: e1a8 	sd	a0, 0x40(a1)
ffffffff80006192: a009 	j	0xffffffff80006194 <serial_irq+0xe4>
ffffffff80006194: 00042517     	auipc	a0, 0x42
ffffffff80006198: f3c50513     	addi	a0, a0, -0xc4
ffffffff8000619c: fca43c23     	sd	a0, -0x28(s0)
; 	__asm__ __volatile__("amoswap.w.rl zero, zero, %0" : "+A" (s->lock) : : "memory" );
ffffffff800061a0: fd843503     	ld	a0, -0x28(s0)
ffffffff800061a4: 0a05202f     	amoswap.w.rl	zero, zero, (a0)
; 				break;
ffffffff800061a8: a815 	j	0xffffffff800061dc <serial_irq+0x12c>
ffffffff800061aa: 10000537     	lui	a0, 0x10000
ffffffff800061ae: 0515 	addi	a0, a0, 0x5
ffffffff800061b0: faa43823     	sd	a0, -0x50(s0)
; 	return *(volatile u8 *)addr;
ffffffff800061b4: fb043503     	ld	a0, -0x50(s0)
ffffffff800061b8: 00054503     	lbu	a0, 0x0(a0)
; 				u8 lsr_val = ioread8((SERIAL_BASE + SERIAL_LSR));
ffffffff800061bc: faa40223     	sb	a0, -0x5c(s0)
; 				lida_com_LSR(lsr_val);
ffffffff800061c0: fa444503     	lbu	a0, -0x5c(s0)
ffffffff800061c4: e15ff0ef     	jal	0xffffffff80005fd8 <lida_com_LSR>
; 				break;
ffffffff800061c8: a811 	j	0xffffffff800061dc <serial_irq+0x12c>
ffffffff800061ca: 10000537     	lui	a0, 0x10000
ffffffff800061ce: faa43423     	sd	a0, -0x58(s0)
; 	return *(volatile u8 *)addr;
ffffffff800061d2: fa843503     	ld	a0, -0x58(s0)
ffffffff800061d6: 00054503     	lbu	a0, 0x0(a0)
; 				break;
ffffffff800061da: a009 	j	0xffffffff800061dc <serial_irq+0x12c>
; 	}
ffffffff800061dc: a009 	j	0xffffffff800061de <serial_irq+0x12e>
; 	return;
ffffffff800061de: a009 	j	0xffffffff800061e0 <serial_irq+0x130>
; }
ffffffff800061e0: 70a6 	ld	ra, 0x68(sp)
ffffffff800061e2: 7406 	ld	s0, 0x60(sp)
ffffffff800061e4: 6165 	addi	sp, sp, 0x70
ffffffff800061e6: 8082 	ret

ffffffff800061e8 <serial_read>:
; {
ffffffff800061e8: 7159 	addi	sp, sp, -0x70
ffffffff800061ea: f486 	sd	ra, 0x68(sp)
ffffffff800061ec: f0a2 	sd	s0, 0x60(sp)
ffffffff800061ee: 1880 	addi	s0, sp, 0x70
ffffffff800061f0: faa43423     	sd	a0, -0x58(s0)
ffffffff800061f4: 00042517     	auipc	a0, 0x42
ffffffff800061f8: edc50513     	addi	a0, a0, -0x124
ffffffff800061fc: faa43c23     	sd	a0, -0x48(s0)
; 	flags = hart_irq_save();
ffffffff80006200: cb7ff0ef     	jal	0xffffffff80005eb6 <hart_irq_save>
ffffffff80006204: faa43823     	sd	a0, -0x50(s0)
; 	spin_lock(s);
ffffffff80006208: fb843503     	ld	a0, -0x48(s0)
ffffffff8000620c: fca43023     	sd	a0, -0x40(s0)
; 	while (!spin_trylock(s)) {}
ffffffff80006210: a009 	j	0xffffffff80006212 <serial_read+0x2a>
ffffffff80006212: fc043503     	ld	a0, -0x40(s0)
ffffffff80006216: fea43423     	sd	a0, -0x18(s0)
; 	__asm__ __volatile__("amoswap.w.aq %0, %2, %1" : "=r" (val), "+A" (s->lock) : "r" (1) : "memory");
ffffffff8000621a: fe843503     	ld	a0, -0x18(s0)
ffffffff8000621e: 4585 	li	a1, 0x1
ffffffff80006220: 0cb5252f     	amoswap.w.aq	a0, a1, (a0)
ffffffff80006224: fea42223     	sw	a0, -0x1c(s0)
; 	return !val;
ffffffff80006228: fe442503     	lw	a0, -0x1c(s0)
; 	while (!spin_trylock(s)) {}
ffffffff8000622c: c119 	beqz	a0, 0xffffffff80006232 <serial_read+0x4a>
ffffffff8000622e: a009 	j	0xffffffff80006230 <serial_read+0x48>
ffffffff80006230: b7cd 	j	0xffffffff80006212 <serial_read+0x2a>
; 	return flags;
ffffffff80006232: fb043503     	ld	a0, -0x50(s0)
; 	u64 flags = spin_lock_irqsave(&serial_lock);
ffffffff80006236: faa43023     	sd	a0, -0x60(s0)
; 	size_t tam = nbuf.len;
ffffffff8000623a: 00042517     	auipc	a0, 0x42
ffffffff8000623e: e4e50513     	addi	a0, a0, -0x1b2
ffffffff80006242: 6128 	ld	a0, 0x40(a0)
ffffffff80006244: f8a43c23     	sd	a0, -0x68(s0)
ffffffff80006248: 4501 	li	a0, 0x0
; 	for (size_t i = 0; i < tam; i++){
ffffffff8000624a: f8a43823     	sd	a0, -0x70(s0)
ffffffff8000624e: a009 	j	0xffffffff80006250 <serial_read+0x68>
ffffffff80006250: f9043503     	ld	a0, -0x70(s0)
ffffffff80006254: f9843583     	ld	a1, -0x68(s0)
ffffffff80006258: 02b57863     	bgeu	a0, a1, 0xffffffff80006288 <serial_read+0xa0>
ffffffff8000625c: a009 	j	0xffffffff8000625e <serial_read+0x76>
; 		buf[i] = nbuf.buffer[i];
ffffffff8000625e: f9043603     	ld	a2, -0x70(s0)
ffffffff80006262: 00042517     	auipc	a0, 0x42
ffffffff80006266: e2650513     	addi	a0, a0, -0x1da
ffffffff8000626a: 9532 	add	a0, a0, a2
ffffffff8000626c: 00054503     	lbu	a0, 0x0(a0)
ffffffff80006270: fa843583     	ld	a1, -0x58(s0)
ffffffff80006274: 95b2 	add	a1, a1, a2
ffffffff80006276: 00a58023     	sb	a0, 0x0(a1)
; 	}
ffffffff8000627a: a009 	j	0xffffffff8000627c <serial_read+0x94>
; 	for (size_t i = 0; i < tam; i++){
ffffffff8000627c: f9043503     	ld	a0, -0x70(s0)
ffffffff80006280: 0505 	addi	a0, a0, 0x1
ffffffff80006282: f8a43823     	sd	a0, -0x70(s0)
ffffffff80006286: b7e9 	j	0xffffffff80006250 <serial_read+0x68>
; 	nbuf.len = 0;
ffffffff80006288: 00042517     	auipc	a0, 0x42
ffffffff8000628c: e0050593     	addi	a1, a0, -0x200
ffffffff80006290: 4501 	li	a0, 0x0
ffffffff80006292: e1a8 	sd	a0, 0x40(a1)
; 	spin_unlock_irqrestore(&serial_lock, flags);
ffffffff80006294: fa043503     	ld	a0, -0x60(s0)
ffffffff80006298: 00042597     	auipc	a1, 0x42
ffffffff8000629c: e3858593     	addi	a1, a1, -0x1c8
ffffffff800062a0: fcb43823     	sd	a1, -0x30(s0)
ffffffff800062a4: fca43423     	sd	a0, -0x38(s0)
; 	spin_unlock(s);
ffffffff800062a8: fd043503     	ld	a0, -0x30(s0)
ffffffff800062ac: fca43c23     	sd	a0, -0x28(s0)
; 	__asm__ __volatile__("amoswap.w.rl zero, zero, %0" : "+A" (s->lock) : : "memory" );
ffffffff800062b0: fd843503     	ld	a0, -0x28(s0)
ffffffff800062b4: 0a05202f     	amoswap.w.rl	zero, zero, (a0)
; 	hart_irq_restore(flags);
ffffffff800062b8: fc843503     	ld	a0, -0x38(s0)
ffffffff800062bc: c35ff0ef     	jal	0xffffffff80005ef0 <hart_irq_restore>
; 	return tam;
ffffffff800062c0: f9843503     	ld	a0, -0x68(s0)
ffffffff800062c4: 70a6 	ld	ra, 0x68(sp)
ffffffff800062c6: 7406 	ld	s0, 0x60(sp)
ffffffff800062c8: 6165 	addi	sp, sp, 0x70
ffffffff800062ca: 8082 	ret

ffffffff800062cc <serial_puts>:
; {
ffffffff800062cc: 1101 	addi	sp, sp, -0x20
ffffffff800062ce: ec06 	sd	ra, 0x18(sp)
ffffffff800062d0: e822 	sd	s0, 0x10(sp)
ffffffff800062d2: 1000 	addi	s0, sp, 0x20
ffffffff800062d4: fea43423     	sd	a0, -0x18(s0)
; 	while(*str){
ffffffff800062d8: a009 	j	0xffffffff800062da <serial_puts+0xe>
ffffffff800062da: fe843503     	ld	a0, -0x18(s0)
ffffffff800062de: 00054503     	lbu	a0, 0x0(a0)
ffffffff800062e2: cd11 	beqz	a0, 0xffffffff800062fe <serial_puts+0x32>
ffffffff800062e4: a009 	j	0xffffffff800062e6 <serial_puts+0x1a>
; 		serial_putc(*str);
ffffffff800062e6: fe843503     	ld	a0, -0x18(s0)
ffffffff800062ea: 00054503     	lbu	a0, 0x0(a0)
ffffffff800062ee: 018000ef     	jal	0xffffffff80006306 <serial_putc>
; 		str++;
ffffffff800062f2: fe843503     	ld	a0, -0x18(s0)
ffffffff800062f6: 0505 	addi	a0, a0, 0x1
ffffffff800062f8: fea43423     	sd	a0, -0x18(s0)
; 	while(*str){
ffffffff800062fc: bff9 	j	0xffffffff800062da <serial_puts+0xe>
; }
ffffffff800062fe: 60e2 	ld	ra, 0x18(sp)
ffffffff80006300: 6442 	ld	s0, 0x10(sp)
ffffffff80006302: 6105 	addi	sp, sp, 0x20
ffffffff80006304: 8082 	ret

ffffffff80006306 <serial_putc>:
; {
ffffffff80006306: 7179 	addi	sp, sp, -0x30
ffffffff80006308: f406 	sd	ra, 0x28(sp)
ffffffff8000630a: f022 	sd	s0, 0x20(sp)
ffffffff8000630c: 1800 	addi	s0, sp, 0x30
ffffffff8000630e: fca40ba3     	sb	a0, -0x29(s0)
ffffffff80006312: 10000537     	lui	a0, 0x10000
ffffffff80006316: 0515 	addi	a0, a0, 0x5
ffffffff80006318: fea43423     	sd	a0, -0x18(s0)
; 	return *(volatile u8 *)addr;
ffffffff8000631c: fe843503     	ld	a0, -0x18(s0)
; 	if (ioread8(SERIAL_BASE + SERIAL_LSR) & SERIAL_LSR_THRE){
ffffffff80006320: 00054503     	lbu	a0, 0x0(a0)
ffffffff80006324: 02057513     	andi	a0, a0, 0x20
ffffffff80006328: c10d 	beqz	a0, 0xffffffff8000634a <serial_putc+0x44>
ffffffff8000632a: a009 	j	0xffffffff8000632c <serial_putc+0x26>
; 		iowrite8((u8)c, (SERIAL_BASE + SERIAL_THR));
ffffffff8000632c: fd744503     	lbu	a0, -0x29(s0)
ffffffff80006330: fea403a3     	sb	a0, -0x19(s0)
ffffffff80006334: 10000537     	lui	a0, 0x10000
ffffffff80006338: fca43c23     	sd	a0, -0x28(s0)
; 	*(volatile u8 *)addr = val;
ffffffff8000633c: fe744503     	lbu	a0, -0x19(s0)
ffffffff80006340: fd843583     	ld	a1, -0x28(s0)
ffffffff80006344: 00a58023     	sb	a0, 0x0(a1)
; 	}
ffffffff80006348: a009 	j	0xffffffff8000634a <serial_putc+0x44>
; }
ffffffff8000634a: 70a2 	ld	ra, 0x28(sp)
ffffffff8000634c: 7402 	ld	s0, 0x20(sp)
ffffffff8000634e: 6145 	addi	sp, sp, 0x30
ffffffff80006350: 8082 	ret

ffffffff80006352 <plic_irq_set_priority>:
; {
ffffffff80006352: 7179 	addi	sp, sp, -0x30
ffffffff80006354: f406 	sd	ra, 0x28(sp)
ffffffff80006356: f022 	sd	s0, 0x20(sp)
ffffffff80006358: 1800 	addi	s0, sp, 0x30
ffffffff8000635a: fca42e23     	sw	a0, -0x24(s0)
ffffffff8000635e: fcb42c23     	sw	a1, -0x28(s0)
; 	iowrite32(prio, PLIC_IRQ_PRIORITY(irq));
ffffffff80006362: fd842583     	lw	a1, -0x28(s0)
ffffffff80006366: fdc42503     	lw	a0, -0x24(s0)
ffffffff8000636a: 150a 	slli	a0, a0, 0x22
ffffffff8000636c: 9101 	srli	a0, a0, 0x20
ffffffff8000636e: ff003637     	lui	a2, 0xff003
ffffffff80006372: 063a 	slli	a2, a2, 0xe
ffffffff80006374: 9532 	add	a0, a0, a2
ffffffff80006376: feb42623     	sw	a1, -0x14(s0)
ffffffff8000637a: fea43023     	sd	a0, -0x20(s0)
; 	*(volatile u32 *)addr = val;
ffffffff8000637e: fec42503     	lw	a0, -0x14(s0)
ffffffff80006382: fe043583     	ld	a1, -0x20(s0)
ffffffff80006386: c188 	sw	a0, 0x0(a1)
; }
ffffffff80006388: 70a2 	ld	ra, 0x28(sp)
ffffffff8000638a: 7402 	ld	s0, 0x20(sp)
ffffffff8000638c: 6145 	addi	sp, sp, 0x30
ffffffff8000638e: 8082 	ret

ffffffff80006390 <plic_hart_enable_irq>:
; {
ffffffff80006390: 7179 	addi	sp, sp, -0x30
ffffffff80006392: f406 	sd	ra, 0x28(sp)
ffffffff80006394: f022 	sd	s0, 0x20(sp)
ffffffff80006396: 1800 	addi	s0, sp, 0x30
ffffffff80006398: fca42e23     	sw	a0, -0x24(s0)
ffffffff8000639c: fcb42c23     	sw	a1, -0x28(s0)
; 	u32 offset = irq/32;
ffffffff800063a0: fd846503     	lwu	a0, -0x28(s0)
ffffffff800063a4: 8115 	srli	a0, a0, 0x5
ffffffff800063a6: fca42a23     	sw	a0, -0x2c(s0)
; 	u32 val = (1 << (irq % 32));
ffffffff800063aa: fd846583     	lwu	a1, -0x28(s0)
ffffffff800063ae: 4505 	li	a0, 0x1
ffffffff800063b0: 00b5153b     	sllw	a0, a0, a1
ffffffff800063b4: fca42823     	sw	a0, -0x30(s0)
; 	iowrite32(val, PLIC_HART_ENABLE(hart) + offset);
ffffffff800063b8: fd042583     	lw	a1, -0x30(s0)
ffffffff800063bc: fdc42503     	lw	a0, -0x24(s0)
ffffffff800063c0: 1522 	slli	a0, a0, 0x28
ffffffff800063c2: 9101 	srli	a0, a0, 0x20
ffffffff800063c4: fd446603     	lwu	a2, -0x2c(s0)
ffffffff800063c8: 060a 	slli	a2, a2, 0x2
ffffffff800063ca: 9532 	add	a0, a0, a2
ffffffff800063cc: 80180637     	lui	a2, 0x80180
ffffffff800063d0: 04160613     	addi	a2, a2, 0x41
ffffffff800063d4: 061e 	slli	a2, a2, 0x7
ffffffff800063d6: 9532 	add	a0, a0, a2
ffffffff800063d8: feb42623     	sw	a1, -0x14(s0)
ffffffff800063dc: fea43023     	sd	a0, -0x20(s0)
; 	*(volatile u32 *)addr = val;
ffffffff800063e0: fec42503     	lw	a0, -0x14(s0)
ffffffff800063e4: fe043583     	ld	a1, -0x20(s0)
ffffffff800063e8: c188 	sw	a0, 0x0(a1)
; }
ffffffff800063ea: 70a2 	ld	ra, 0x28(sp)
ffffffff800063ec: 7402 	ld	s0, 0x20(sp)
ffffffff800063ee: 6145 	addi	sp, sp, 0x30
ffffffff800063f0: 8082 	ret

ffffffff800063f2 <plic_hart_set_threshold>:
; {
ffffffff800063f2: 7179 	addi	sp, sp, -0x30
ffffffff800063f4: f406 	sd	ra, 0x28(sp)
ffffffff800063f6: f022 	sd	s0, 0x20(sp)
ffffffff800063f8: 1800 	addi	s0, sp, 0x30
ffffffff800063fa: fca42e23     	sw	a0, -0x24(s0)
ffffffff800063fe: fcb42c23     	sw	a1, -0x28(s0)
; 	trace("plic: writing threshold=%d for hart %d (%p)\n", threshold, hart, PLIC_HART_THRESHOLD(hart));
ffffffff80006402: fd842603     	lw	a2, -0x28(s0)
ffffffff80006406: fdc42683     	lw	a3, -0x24(s0)
ffffffff8000640a: 02c69513     	slli	a0, a3, 0x2c
ffffffff8000640e: 9101 	srli	a0, a0, 0x20
ffffffff80006410: fc00c5b7     	lui	a1, 0xfc00c
ffffffff80006414: 20158593     	addi	a1, a1, 0x201
ffffffff80006418: 05b2 	slli	a1, a1, 0xc
ffffffff8000641a: fcb43823     	sd	a1, -0x30(s0)
ffffffff8000641e: 00b50733     	add	a4, a0, a1
ffffffff80006422: 0004d517     	auipc	a0, 0x4d
ffffffff80006426: a2f50593     	addi	a1, a0, -0x5d1
ffffffff8000642a: 4515 	li	a0, 0x5
ffffffff8000642c: feffc0ef     	jal	0xffffffff8000341a <printk>
ffffffff80006430: fd043603     	ld	a2, -0x30(s0)
; 	iowrite32(threshold, PLIC_HART_THRESHOLD(hart));
ffffffff80006434: fd842583     	lw	a1, -0x28(s0)
ffffffff80006438: fdc42503     	lw	a0, -0x24(s0)
ffffffff8000643c: 1532 	slli	a0, a0, 0x2c
ffffffff8000643e: 9101 	srli	a0, a0, 0x20
ffffffff80006440: 9532 	add	a0, a0, a2
ffffffff80006442: feb42623     	sw	a1, -0x14(s0)
ffffffff80006446: fea43023     	sd	a0, -0x20(s0)
; 	*(volatile u32 *)addr = val;
ffffffff8000644a: fec42503     	lw	a0, -0x14(s0)
ffffffff8000644e: fe043583     	ld	a1, -0x20(s0)
ffffffff80006452: c188 	sw	a0, 0x0(a1)
; }
ffffffff80006454: 70a2 	ld	ra, 0x28(sp)
ffffffff80006456: 7402 	ld	s0, 0x20(sp)
ffffffff80006458: 6145 	addi	sp, sp, 0x30
ffffffff8000645a: 8082 	ret

ffffffff8000645c <plic_hart_claim_irq>:
; {
ffffffff8000645c: 7179 	addi	sp, sp, -0x30
ffffffff8000645e: f406 	sd	ra, 0x28(sp)
ffffffff80006460: f022 	sd	s0, 0x20(sp)
ffffffff80006462: 1800 	addi	s0, sp, 0x30
ffffffff80006464: fea42223     	sw	a0, -0x1c(s0)
; 	trace("plic: claiming irq at reg %p\n", PLIC_HART_CLAIM(0));
ffffffff80006468: 0004c517     	auipc	a0, 0x4c
ffffffff8000646c: 42350593     	addi	a1, a0, 0x423
ffffffff80006470: fc00c537     	lui	a0, 0xfc00c
ffffffff80006474: 20150513     	addi	a0, a0, 0x201
ffffffff80006478: 0532 	slli	a0, a0, 0xc
ffffffff8000647a: 00450613     	addi	a2, a0, 0x4
ffffffff8000647e: fcc43c23     	sd	a2, -0x28(s0)
ffffffff80006482: 4515 	li	a0, 0x5
ffffffff80006484: f97fc0ef     	jal	0xffffffff8000341a <printk>
ffffffff80006488: fd843583     	ld	a1, -0x28(s0)
; 	return ioread32(PLIC_HART_CLAIM(hart));
ffffffff8000648c: fe442503     	lw	a0, -0x1c(s0)
ffffffff80006490: 1532 	slli	a0, a0, 0x2c
ffffffff80006492: 9101 	srli	a0, a0, 0x20
ffffffff80006494: 952e 	add	a0, a0, a1
ffffffff80006496: fea43423     	sd	a0, -0x18(s0)
; 	return *(volatile u32 *)addr;
ffffffff8000649a: fe843503     	ld	a0, -0x18(s0)
ffffffff8000649e: 4108 	lw	a0, 0x0(a0)
; 	return ioread32(PLIC_HART_CLAIM(hart));
ffffffff800064a0: 70a2 	ld	ra, 0x28(sp)
ffffffff800064a2: 7402 	ld	s0, 0x20(sp)
ffffffff800064a4: 6145 	addi	sp, sp, 0x30
ffffffff800064a6: 8082 	ret

ffffffff800064a8 <plic_hart_complete_irq>:
; {
ffffffff800064a8: 7179 	addi	sp, sp, -0x30
ffffffff800064aa: f406 	sd	ra, 0x28(sp)
ffffffff800064ac: f022 	sd	s0, 0x20(sp)
ffffffff800064ae: 1800 	addi	s0, sp, 0x30
ffffffff800064b0: fca42e23     	sw	a0, -0x24(s0)
ffffffff800064b4: fcb42c23     	sw	a1, -0x28(s0)
; 	iowrite32(irq, PLIC_HART_CLAIM(hart));
ffffffff800064b8: fd842583     	lw	a1, -0x28(s0)
ffffffff800064bc: fdc42503     	lw	a0, -0x24(s0)
ffffffff800064c0: 1532 	slli	a0, a0, 0x2c
ffffffff800064c2: 9101 	srli	a0, a0, 0x20
ffffffff800064c4: fc00c637     	lui	a2, 0xfc00c
ffffffff800064c8: 20160613     	addi	a2, a2, 0x201
ffffffff800064cc: 0632 	slli	a2, a2, 0xc
ffffffff800064ce: 0611 	addi	a2, a2, 0x4
ffffffff800064d0: 9532 	add	a0, a0, a2
ffffffff800064d2: feb42623     	sw	a1, -0x14(s0)
ffffffff800064d6: fea43023     	sd	a0, -0x20(s0)
; 	*(volatile u32 *)addr = val;
ffffffff800064da: fec42503     	lw	a0, -0x14(s0)
ffffffff800064de: fe043583     	ld	a1, -0x20(s0)
ffffffff800064e2: c188 	sw	a0, 0x0(a1)
; }
ffffffff800064e4: 70a2 	ld	ra, 0x28(sp)
ffffffff800064e6: 7402 	ld	s0, 0x20(sp)
ffffffff800064e8: 6145 	addi	sp, sp, 0x30
ffffffff800064ea: 8082 	ret

ffffffff800064ec <kmain>:
; {
ffffffff800064ec: 1101 	addi	sp, sp, -0x20
ffffffff800064ee: ec06 	sd	ra, 0x18(sp)
ffffffff800064f0: e822 	sd	s0, 0x10(sp)
ffffffff800064f2: 1000 	addi	s0, sp, 0x20
ffffffff800064f4: 4511 	li	a0, 0x4
; 	printk_set_level(LOG_DEBUG);
ffffffff800064f6: f03fc0ef     	jal	0xffffffff800033f8 <printk_set_level>
; 	info("entered S-mode\n");
ffffffff800064fa: 0004c517     	auipc	a0, 0x4c
ffffffff800064fe: 57450593     	addi	a1, a0, 0x574
ffffffff80006502: 450d 	li	a0, 0x3
ffffffff80006504: fea43423     	sd	a0, -0x18(s0)
ffffffff80006508: f13fc0ef     	jal	0xffffffff8000341a <printk>
ffffffff8000650c: fe843503     	ld	a0, -0x18(s0)
; 	info("booting on hart %d\n", _hartid[0]);
ffffffff80006510: 00042597     	auipc	a1, 0x42
ffffffff80006514: bc458593     	addi	a1, a1, -0x43c
ffffffff80006518: 4190 	lw	a2, 0x0(a1)
ffffffff8000651a: 0004c597     	auipc	a1, 0x4c
ffffffff8000651e: 2e958593     	addi	a1, a1, 0x2e9
ffffffff80006522: ef9fc0ef     	jal	0xffffffff8000341a <printk>
ffffffff80006526: fe843503     	ld	a0, -0x18(s0)
; 	info("setting up virtual memory...\n");
ffffffff8000652a: 0004c597     	auipc	a1, 0x4c
ffffffff8000652e: 25a58593     	addi	a1, a1, 0x25a
ffffffff80006532: ee9fc0ef     	jal	0xffffffff8000341a <printk>
; 	vm_init();
ffffffff80006536: a24fe0ef     	jal	0xffffffff8000475a <vm_init>
ffffffff8000653a: fe843503     	ld	a0, -0x18(s0)
; 	info("enabling traps...\n");
ffffffff8000653e: 0004c597     	auipc	a1, 0x4c
ffffffff80006542: 14e58593     	addi	a1, a1, 0x14e
ffffffff80006546: ed5fc0ef     	jal	0xffffffff8000341a <printk>
; 	trap_setup();
ffffffff8000654a: 89fff0ef     	jal	0xffffffff80005de8 <trap_setup>
ffffffff8000654e: fe843503     	ld	a0, -0x18(s0)
; 	info("enabling timer...\n");
ffffffff80006552: 0004c597     	auipc	a1, 0x4c
ffffffff80006556: 42a58593     	addi	a1, a1, 0x42a
ffffffff8000655a: ec1fc0ef     	jal	0xffffffff8000341a <printk>
; 	timer_irq_enable();
ffffffff8000655e: dc8ff0ef     	jal	0xffffffff80005b26 <timer_irq_enable>
ffffffff80006562: fe843503     	ld	a0, -0x18(s0)
; 	info("enabling serial...\n");
ffffffff80006566: 0004c597     	auipc	a1, 0x4c
ffffffff8000656a: f0158593     	addi	a1, a1, -0xff
ffffffff8000656e: eadfc0ef     	jal	0xffffffff8000341a <printk>
; 	serial_init();
ffffffff80006572: 9c5ff0ef     	jal	0xffffffff80005f36 <serial_init>
; 	serial_irq_enable();
ffffffff80006576: afbff0ef     	jal	0xffffffff80006070 <serial_irq_enable>
ffffffff8000657a: 4505 	li	a0, 0x1
; 	timer_set_alarm(1);
ffffffff8000657c: dd0ff0ef     	jal	0xffffffff80005b4c <timer_set_alarm>
; 	print("> ");
ffffffff80006580: 0004c517     	auipc	a0, 0x4c
ffffffff80006584: 11f50513     	addi	a0, a0, 0x11f
ffffffff80006588: a9ffc0ef     	jal	0xffffffff80003026 <print>
; }
ffffffff8000658c: 60e2 	ld	ra, 0x18(sp)
ffffffff8000658e: 6442 	ld	s0, 0x10(sp)
ffffffff80006590: 6105 	addi	sp, sp, 0x20
ffffffff80006592: 8082 	ret

Disassembly of section .text.init:

ffffffff80006594 <kstart>:
;     la gp, _global_pointer
ffffffff80006594: 00042197     	auipc	gp, 0x42
ffffffff80006598: b4018193     	addi	gp, gp, -0x4c0
;     la sp, _stack_top
ffffffff8000659c: 0004a117     	auipc	sp, 0x4a
ffffffff800065a0: b3810113     	addi	sp, sp, -0x4c8
;     la t5, _bss_start
ffffffff800065a4: 00001f17     	auipc	t5, 0x1
ffffffff800065a8: a5cf0f13     	addi	t5, t5, -0x5a4
;     la t6, _bss_end
ffffffff800065ac: 0004bf97     	auipc	t6, 0x4b
ffffffff800065b0: b28f8f93     	addi	t6, t6, -0x4d8

ffffffff800065b4 <bss_clear>:
;     sd zero, (t5)
ffffffff800065b4: 000f3023     	sd	zero, 0x0(t5)
;     addi t5, t5, 8
ffffffff800065b8: 008f0f13     	addi	t5, t5, 0x8
;     bltu t5, t6, bss_clear
ffffffff800065bc: ffff6ce3     	bltu	t5, t6, 0xffffffff800065b4 <bss_clear>

ffffffff800065c0 <save_dtb>:
;         la t0, _kernel_dtb
ffffffff800065c0: 00042297     	auipc	t0, 0x42
ffffffff800065c4: b1428293     	addi	t0, t0, -0x4ec
;         sw a1, (t0)
ffffffff800065c8: 00b2a023     	sw	a1, 0x0(t0)
;         la t0, _hartid
ffffffff800065cc: 00042297     	auipc	t0, 0x42
ffffffff800065d0: b0828293     	addi	t0, t0, -0x4f8
;         sw a0, (t0)
ffffffff800065d4: 00a2a023     	sw	a0, 0x0(t0)
;     j kmain
ffffffff800065d8: f15ff06f     	j	0xffffffff800064ec <kmain>
